BL51 BANKED LINKER/LOCATER V6.22                                                        06/27/2018  11:39:01  PAGE 1


BL51 BANKED LINKER/LOCATER V6.22, INVOKED BY:
C:\KEIL\C51\BIN\BL51.EXE .\obj\STARTUP.obj, .\obj\AdcDrv.obj, .\obj\AngApp.obj, .\obj\Calibration.obj, .\obj\CalMcuT.obj
>> , .\obj\CmdSub.obj, .\obj\Comm.obj, .\obj\compass.obj, .\obj\Delay.obj, .\obj\Filter.obj, .\obj\Flash.obj, .\obj\Init
>> .obj, .\obj\Key.obj, .\obj\Main.obj, .\obj\ModBusCrc.obj, .\obj\ModBusRtu.obj, .\obj\Send.obj, .\obj\Sensor.obj, .\ob
>> j\Sub.obj, .\obj\Timer.obj TO .\obj\WTS125_M PRINT (.\lst\WTS125_M.m51) RAMSIZE (256)


MEMORY MODEL: SMALL WITH FLOATING POINT ARITHMETIC


INPUT MODULES INCLUDED:
  .\obj\STARTUP.obj (?C_STARTUP)
  .\obj\AdcDrv.obj (ADCDRV)
  .\obj\AngApp.obj (ANGAPP)
  .\obj\Calibration.obj (CALIBRATION)
  .\obj\CalMcuT.obj (CALMCUT)
  .\obj\CmdSub.obj (CMDSUB)
  .\obj\Comm.obj (COMM)
  .\obj\compass.obj (COMPASS)
  .\obj\Delay.obj (DELAY)
  .\obj\Filter.obj (FILTER)
  .\obj\Flash.obj (FLASH)
  .\obj\Init.obj (INIT)
  .\obj\Key.obj (KEY)
  .\obj\Main.obj (MAIN)
  .\obj\ModBusCrc.obj (MODBUSCRC)
  .\obj\ModBusRtu.obj (MODBUSRTU)
  .\obj\Send.obj (SEND)
  .\obj\Sensor.obj (SENSOR)
  .\obj\Sub.obj (SUB)
  .\obj\Timer.obj (TIMER)
  C:\KEIL\C51\LIB\C51FPS.LIB (?C?FPADD)
  C:\KEIL\C51\LIB\C51FPS.LIB (?C?FPMUL)
  C:\KEIL\C51\LIB\C51FPS.LIB (?C?FPDIV)
  C:\KEIL\C51\LIB\C51FPS.LIB (?C?FPCMP)
  C:\KEIL\C51\LIB\C51FPS.LIB (?C?FCAST)
  C:\KEIL\C51\LIB\C51FPS.LIB (?C?CASTF)
  C:\KEIL\C51\LIB\C51FPS.LIB (SQRT)
  C:\KEIL\C51\LIB\C51FPS.LIB (SIN)
  C:\KEIL\C51\LIB\C51FPS.LIB (ATAN)
  C:\KEIL\C51\LIB\C51FPS.LIB (ASIN)
  C:\KEIL\C51\LIB\C51FPS.LIB (?C?FPGETOPN)
  C:\KEIL\C51\LIB\C51FPS.LIB (?C?FPSERIES)
  C:\KEIL\C51\LIB\C51S.LIB (?C_INIT)
  C:\KEIL\C51\LIB\C51S.LIB (?C?CLDPTR)
  C:\KEIL\C51\LIB\C51S.LIB (?C?CLDOPTR)
  C:\KEIL\C51\LIB\C51S.LIB (?C?CILDPTR)
  C:\KEIL\C51\LIB\C51S.LIB (?C?CILDOPTR)
  C:\KEIL\C51\LIB\C51S.LIB (?C?CSTPTR)
  C:\KEIL\C51\LIB\C51S.LIB (?C?CSTOPTR)
  C:\KEIL\C51\LIB\C51S.LIB (?C?IMUL)
  C:\KEIL\C51\LIB\C51S.LIB (?C?UIDIV)
  C:\KEIL\C51\LIB\C51S.LIB (?C?SIDIV)
  C:\KEIL\C51\LIB\C51S.LIB (?C?IILDX)
  C:\KEIL\C51\LIB\C51S.LIB (?C?ILDPTR)
  C:\KEIL\C51\LIB\C51S.LIB (?C?ILDOPTR)
  C:\KEIL\C51\LIB\C51S.LIB (?C?IILDPTR)
  C:\KEIL\C51\LIB\C51S.LIB (?C?IILDOPTR)
BL51 BANKED LINKER/LOCATER V6.22                                                      06/27/2018  11:39:01  PAGE 2


  C:\KEIL\C51\LIB\C51S.LIB (?C?ISTPTR)
  C:\KEIL\C51\LIB\C51S.LIB (?C?ISTOPTR)
  C:\KEIL\C51\LIB\C51S.LIB (?C?LMUL)
  C:\KEIL\C51\LIB\C51S.LIB (?C?ULDIV)
  C:\KEIL\C51\LIB\C51S.LIB (?C?SLDIV)
  C:\KEIL\C51\LIB\C51S.LIB (?C?LNEG)
  C:\KEIL\C51\LIB\C51S.LIB (?C?SLCMP)
  C:\KEIL\C51\LIB\C51S.LIB (?C?ULCMP)
  C:\KEIL\C51\LIB\C51S.LIB (?C?ULSHR)
  C:\KEIL\C51\LIB\C51S.LIB (?C?LSHL)
  C:\KEIL\C51\LIB\C51S.LIB (?C?LLDPTR)
  C:\KEIL\C51\LIB\C51S.LIB (?C?LLDOPTR)
  C:\KEIL\C51\LIB\C51S.LIB (?C?LSTPTR)
  C:\KEIL\C51\LIB\C51S.LIB (?C?LSTOPTR)
  C:\KEIL\C51\LIB\C51S.LIB (?C?LLDCODE)
  C:\KEIL\C51\LIB\C51S.LIB (?C?LLDCODE0)
  C:\KEIL\C51\LIB\C51S.LIB (?C?LLDOPTR0)
  C:\KEIL\C51\LIB\C51S.LIB (?C?LSTXDATA)
  C:\KEIL\C51\LIB\C51S.LIB (?C?LSTKXDATA)
  C:\KEIL\C51\LIB\C51S.LIB (?C?LSTKOPTR)
  C:\KEIL\C51\LIB\C51S.LIB (?C?OFFXADD)
  C:\KEIL\C51\LIB\C51S.LIB (?C?PLDOPTR)
  C:\KEIL\C51\LIB\C51S.LIB (?C?PLDIOPTR)
  C:\KEIL\C51\LIB\C51S.LIB (?C?PSTOPTR)
  C:\KEIL\C51\LIB\C51S.LIB (?C?ICASE)
  C:\KEIL\C51\LIB\C51S.LIB (?C?ICALL)
  C:\KEIL\C51\LIB\C51S.LIB (STRNCMP)
  C:\KEIL\C51\LIB\C51S.LIB (STRNCPY)
  C:\KEIL\C51\LIB\C51S.LIB (?C?LLDIDATA)
  C:\KEIL\C51\LIB\C51S.LIB (?C?LLDXDATA)
  C:\KEIL\C51\LIB\C51S.LIB (?C?LLDPDATA)
  C:\KEIL\C51\LIB\C51S.LIB (?C?LLDIDATA0)
  C:\KEIL\C51\LIB\C51S.LIB (?C?LLDXDATA0)
  C:\KEIL\C51\LIB\C51S.LIB (?C?LLDPDATA0)
  C:\KEIL\C51\LIB\C51S.LIB (?C?LSTIDATA)
  C:\KEIL\C51\LIB\C51S.LIB (?C?LSTPDATA)
  C:\KEIL\C51\LIB\C51S.LIB (?C?LSTKIDATA)
  C:\KEIL\C51\LIB\C51S.LIB (?C?LSTKPDATA)
  C:\KEIL\C51\LIB\C51S.LIB (?C?PLDIDATA)
  C:\KEIL\C51\LIB\C51S.LIB (?C?PLDIIDATA)
  C:\KEIL\C51\LIB\C51S.LIB (?C?PSTIDATA)
  C:\KEIL\C51\LIB\C51S.LIB (?C?PLDXDATA)
  C:\KEIL\C51\LIB\C51S.LIB (?C?PLDIXDATA)
  C:\KEIL\C51\LIB\C51S.LIB (?C?PSTXDATA)
  C:\KEIL\C51\LIB\C51S.LIB (?C?PLDPDATA)
  C:\KEIL\C51\LIB\C51S.LIB (?C?PLDIPDATA)
  C:\KEIL\C51\LIB\C51S.LIB (?C?PSTPDATA)
  C:\KEIL\C51\LIB\C51S.LIB (?C?PLDCODE)


LINK MAP OF MODULE:  .\obj\WTS125_M (?C_STARTUP)


            TYPE    BASE      LENGTH    RELOCATION   SEGMENT NAME
            -----------------------------------------------------

            * * * * * * *   D A T A   M E M O R Y   * * * * * * *
BL51 BANKED LINKER/LOCATER V6.22                                                      06/27/2018  11:39:01  PAGE 3


            REG     0000H     0008H     ABSOLUTE     "REG BANK 0"
            DATA    0008H     000AH     UNIT         ?DT?SEND
            DATA    0012H     0004H     UNIT         ?DT?CMDSUB
            DATA    0016H     0002H     UNIT         ?DT?CALMCUT
            DATA    0018H     0001H     UNIT         ?DT?TIMER
            IDATA   0019H     0003H     UNIT         ?ID?ADCDRV
                    001CH     0004H                  *** GAP ***
            BIT     0020H.0   0000H.2   UNIT         ?BI?COMM
            BIT     0020H.2   0000H.2   UNIT         _BIT_GROUP_
                    0020H.4   0000H.4                *** GAP ***
            DATA    0021H     0055H     UNIT         _DATA_GROUP_
            IDATA   0076H     0001H     UNIT         ?STACK

            * * * * * * *  X D A T A   M E M O R Y  * * * * * * *
            XDATA   0000H     04B3H     UNIT         ?XD?CALIBRATION
            XDATA   04B3H     0200H     UNIT         ?XD?FLASH
            XDATA   06B3H     01A3H     UNIT         ?XD?COMM
            XDATA   0856H     019EH     UNIT         ?XD?ADCDRV
            XDATA   09F4H     00F1H     UNIT         ?XD?CALMCUT
            XDATA   0AE5H     00C9H     UNIT         ?XD?SEND
            XDATA   0BAEH     0041H     UNIT         ?XD?SENSOR
            XDATA   0BEFH     0038H     UNIT         ?XD?ANGAPP
            XDATA   0C27H     001CH     UNIT         ?XD?COMPASS
            XDATA   0C43H     001CH     UNIT         ?XD?MAIN
            XDATA   0C5FH     0018H     UNIT         ?XD?CMDSUB
            XDATA   0C77H     0014H     UNIT         _XDATA_GROUP_
            XDATA   0C8BH     0010H     UNIT         ?XD?MODBUSRTU
            XDATA   0C9BH     000AH     UNIT         ?XD?INIT
            XDATA   0CA5H     0002H     UNIT         ?XD?TIMER
            XDATA   0CA7H     0001H     UNIT         ?XD?KEY

            * * * * * * *   C O D E   M E M O R Y   * * * * * * *
            CODE    0000H     0003H     ABSOLUTE     
            CODE    0003H     0020H     UNIT         ?PR?_SEND_TDEAL?SEND
            CODE    0023H     0003H     ABSOLUTE     
            CODE    0026H     0004H     UNIT         ?PR?ADC_ENABLE?ADCDRV
                    002AH     0001H                  *** GAP ***
            CODE    002BH     0003H     ABSOLUTE     
            CODE    002EH     001DH     UNIT         ?PR?COMM_TIMERPROC?COMM
            CODE    004BH     0003H     ABSOLUTE     
            CODE    004EH     0B8BH     UNIT         ?C?LIB_CODE
            CODE    0BD9H     0B20H     UNIT         ?PR?_MODRTU_RDVAL?MODBUSRTU
            CODE    16F9H     0783H     UNIT         ?PR?_MODRTU_WRVAL?MODBUSRTU
            CODE    1E7CH     05E2H     UNIT         ?PR?_SEND_SDEAL?SEND
            CODE    245EH     0449H     UNIT         ?PR?_RAM_CALDATA2BUF?FLASH
            CODE    28A7H     03C2H     UNIT         ?PR?_RAM_BUF2CALDATA?FLASH
            CODE    2C69H     02BFH     UNIT         ?PR?_CUSTOMPRO?MODBUSRTU
            CODE    2F28H     0200H     UNIT         ?CO?MODBUSCRC
            CODE    3128H     01CBH     UNIT         ?PR?COMP_ANGCNTPROC?COMPASS
            CODE    32F3H     01BEH     UNIT         ?CO?SEND
            CODE    34B1H     01B9H     UNIT         ?PR?COMP_CALPRMTCNT?COMPASS
            CODE    366AH     01B6H     UNIT         ?PR?_SUB_STR2INT32S?SUB
            CODE    3820H     0184H     UNIT         ?PR?_ANG_CALCPRM?CALIBRATION
            CODE    39A4H     016EH     UNIT         ?PR?SIN?SIN
            CODE    3B12H     016BH     UNIT         ?PR?_MCUT_CALCPRM?CALMCUT
            CODE    3C7DH     0165H     UNIT         ?PR?_SEND_CDEAL?SEND
            CODE    3DE2H     015FH     UNIT         ?PR?_COMP_ADCCORRECTS?COMPASS
BL51 BANKED LINKER/LOCATER V6.22                                                      06/27/2018  11:39:01  PAGE 4


            CODE    3F41H     015FH     UNIT         ?PR?_SUB_INT32S2STR?SUB
            CODE    40A0H     0146H     UNIT         ?PR?_SEND_RDEAL?SEND
            CODE    41E6H     013CH     UNIT         ?PR?SEND_TIMEPROC?SEND
            CODE    4322H     0130H     UNIT         ?PR?_TEMP_CALCPRM?CALIBRATION
            CODE    4452H     0128H     UNIT         ?PR?ATAN?ATAN
            CODE    457AH     011BH     UNIT         ?PR?ANGCALDATAINIT?CALIBRATION
            CODE    4695H     0118H     UNIT         ?PR?_INT32S2VAL?MODBUSRTU
            CODE    47ADH     0115H     UNIT         ?PR?CALIBINIT?CALIBRATION
            CODE    48C2H     0112H     UNIT         ?PR?FLASH_CALDATAINIT?FLASH
            CODE    49D4H     010BH     UNIT         ?PR?COMP_CALSAMPPROC?COMPASS
            CODE    4ADFH     0108H     UNIT         ?PR?_COMP_MIDFILTER?COMPASS
            CODE    4BE7H     0107H     UNIT         ?PR?_TEMP_CALTREFSET?CMDSUB
            CODE    4CEEH     0103H     UNIT         ?PR?_MODRTU_WRREG?MODBUSRTU
            CODE    4DF1H     0100H     UNIT         ?PR?_SEND_WDEAL?SEND
            CODE    4EF1H     00F0H     UNIT         ?PR?MTCALDATAINIT?CALMCUT
            CODE    4FE1H     00EDH     UNIT         ?PR?_MODRTU_RDREG?MODBUSRTU
            CODE    50CEH     00D9H     UNIT         ?PR?_SLIDEWINFILTER?FILTER
            CODE    51A7H     00D8H     UNIT         ?PR?_PANGCALC?ANGAPP
            CODE    527FH     00D4H     UNIT         ?PR?_SUB_SENDTEMPCAL?SUB
            CODE    5353H     00BFH     UNIT         ?PR?_SUB_STR2INT16U?SUB
            CODE    5412H     00B7H     UNIT         ?PR?_GETOFFSET?SENSOR
            CODE    54C9H     00B0H     UNIT         ?PR?_SUB_INT16U2STR?SUB
            CODE    5579H     00AAH     UNIT         ?PR?SQRT?SQRT
            CODE    5623H     00A7H     UNIT         ?PR?_ANG_CALC?SENSOR
            CODE    56CAH     00A5H     UNIT         ?PR?_COMM_GETTXCHAR?COMM
            CODE    576FH     00A5H     UNIT         ?PR?_GETANGCALCVAL?SENSOR
            CODE    5814H     00A4H     UNIT         ?PR?ADC_ISR?ADCDRV
            CODE    58B8H     00A4H     UNIT         ?PR?_COMM_GETCHAR?COMM
            CODE    595CH     0097H     UNIT         ?PR?ADC_XCALSTOP?CMDSUB
            CODE    59F3H     0097H     UNIT         ?PR?ADC_YCALSTOP?CMDSUB
            CODE    5A8AH     0092H     UNIT         ?PR?SNPROC?SENSOR
            CODE    5B1CH     008FH     UNIT         ?PR?COMM_SOFTWAREINIT?COMM
            CODE    5BABH     008DH     UNIT         ?PR?_FLOATTOINT?MODBUSRTU
            CODE    5C38H     008CH     UNIT         ?C_C51STARTUP
            CODE    5CC4H     008CH     UNIT         ?PR?_COMM_PUTCHAR?COMM
            CODE    5D50H     0085H     UNIT         ?PR?_ADCFILTER?ADCDRV
            CODE    5DD5H     0085H     UNIT         ?PR?_TEMP_CALVALWR?CMDSUB
            CODE    5E5AH     0084H     UNIT         ?PR?_COMM_PUTRXCHAR?COMM
            CODE    5EDEH     0084H     UNIT         ?PR?SNINIT?SENSOR
            CODE    5F62H     0080H     UNIT         ?PR?TEMPSORTANDCALCPRM?CMDSUB
            CODE    5FE2H     0080H     UNIT         ?PR?_SNFILTER?SENSOR
            CODE    6062H     007FH     UNIT         ?PR?_ADC_SAVEANDSWITCH?ADCDRV
            CODE    60E1H     007BH     UNIT         ?PR?_SUB_SENDMCUTEMPCAL?SUB
            CODE    615CH     0078H     UNIT         ?PR?ANGINIT?ANGAPP
            CODE    61D4H     0075H     UNIT         ?PR?_SUB_BUFBUBBLE16U?SUB
            CODE    6249H     0072H     UNIT         ?PR?COMM_ISR?COMM
            CODE    62BBH     0071H     UNIT         ?PR?TEMPCALDATAINIT?CALIBRATION
            CODE    632CH     0071H     UNIT         ?PR?GET_MCUTEMPINCELSIUS?SENSOR
            CODE    639DH     006FH     UNIT         ?PR?_STRNCMP?STRNCMP
            CODE    640CH     006DH     UNIT         ?PR?SUB_SENDPRMTALL?SUB
            CODE    6479H     006DH     UNIT         ?PR?_SUB_BUFBUBBLE16S?SUB
            CODE    64E6H     006AH     UNIT         ?PR?_FLASH_BUFWR?FLASH
            CODE    6550H     0069H     UNIT         ?PR?_SN_DATAINIT?SENSOR
            CODE    65B9H     0069H     UNIT         ?PR?_SUB_BUFBUBBLE32S?SUB
            CODE    6622H     0066H     UNIT         ?PR?_TEMP_CALSAMP?CMDSUB
            CODE    6688H     0065H     UNIT         ?PR?_SEND_UDEAL?SEND
            CODE    66EDH     0061H     UNIT         ?PR?SUB_SENDTCALTEST?SUB
BL51 BANKED LINKER/LOCATER V6.22                                                      06/27/2018  11:39:01  PAGE 5


            CODE    674EH     005EH     UNIT         ?CO?SUB
            CODE    67ACH     005DH     UNIT         ?PR?_FILTER_1ST?FILTER
            CODE    6809H     005CH     UNIT         ?PR?_FLASH_BUFRD?FLASH
            CODE    6865H     005BH     UNIT         ?PR?FLASH_CALDATAUPDATE?FLASH
            CODE    68C0H     005AH     UNIT         ?PR?_CHKCODE?MODBUSRTU
            CODE    691AH     005AH     UNIT         ?PR?_SUB_STR2INT16S?SUB
            CODE    6974H     0056H     UNIT         ?PR?FLASHAREA_USER?FLASH
            CODE    69CAH     0056H     UNIT         ?PR?_SUB_SBUFSWITCH?SUB
            CODE    6A20H     0055H     UNIT         ?PR?INIT_SYSTEMPARA?INIT
            CODE    6A75H     0052H     UNIT         ?PR?_STRNCPY?STRNCPY
            CODE    6AC7H     004FH     UNIT         ?PR?_FLASH_CALDATAUPDATE_USER?FLASH
            CODE    6B16H     004DH     UNIT         ?PR?ADCENTITYINIT?ADCDRV
            CODE    6B63H     004DH     UNIT         ?PR?CALIBMTINIT?CALMCUT
            CODE    6BB0H     004DH     UNIT         ?PR?_MCUT_CALVALWR?CALMCUT
            CODE    6BFDH     004CH     UNIT         ?PR?_SUB_16SBUFSWITCH?SUB
            CODE    6C49H     004CH     UNIT         ?PR?_SUB_UBUFSWITCH?SUB
            CODE    6C95H     0046H     UNIT         ?PR?GETXANGALLSETVAL?ANGAPP
            CODE    6CDBH     0046H     UNIT         ?PR?GETYANGALLSETVAL?ANGAPP
            CODE    6D21H     0045H     UNIT         ?PR?_MODRTU_RLYERROR?MODBUSRTU
            CODE    6D66H     0045H     UNIT         ?PR?_SUB_SENDADCTXY?SUB
            CODE    6DABH     0044H     UNIT         ?PR?FLASH_COMPDATAINIT?FLASH
            CODE    6DEFH     0044H     UNIT         ?C?LDIV
            CODE    6E33H     0043H     UNIT         ?PR?_SUMCHK?MODBUSRTU
            CODE    6E76H     0042H     UNIT         ?PR?COMP_SPIBYTEGET?COMPASS
            CODE    6EB8H     003EH     UNIT         ?PR?MCUTCALCPRM?CALMCUT
            CODE    6EF6H     003DH     UNIT         ?PR?TIMER2_INIT?TIMER
            CODE    6F33H     003DH     UNIT         ?PR?TIMER2_ISR?TIMER
            CODE    6F70H     003CH     UNIT         ?PR?COMP_CALDATAINIT?COMPASS
            CODE    6FACH     003CH     UNIT         ?PR?_FLASH_CHECKSUM?FLASH
            CODE    6FE8H     003CH     UNIT         ?PR?MAIN?MAIN
            CODE    7024H     003CH     UNIT         ?PR?_MODRTU_RXPROC?MODBUSRTU
            CODE    7060H     003CH     UNIT         ?PR?_SUB_STR2INT8U?SUB
            CODE    709CH     003CH     UNIT         ?PR?TIMER2_TASKINISR?TIMER
            CODE    70D8H     003BH     UNIT         ?PR?ASIN?ASIN
            CODE    7113H     003AH     UNIT         ?PR?_MODBUSCRCCNT?MODBUSCRC
            CODE    714DH     0036H     UNIT         ?PR?GETANGP?ANGAPP
            CODE    7183H     0036H     UNIT         ?PR?SUB_SENDANGXYP?SUB
            CODE    71B9H     0033H     UNIT         ?C_INITSEG
            CODE    71ECH     0033H     UNIT         ?PR?_MODRTU_SETZERO?MODBUSRTU
            CODE    721FH     0032H     UNIT         ?PR?_FLASHUPDATE?FLASH
            CODE    7251H     0032H     UNIT         ?PR?_COMM_PUTINT16S?SUB
            CODE    7283H     002FH     UNIT         ?PR?COMP_CALINIT?COMPASS
            CODE    72B2H     002FH     UNIT         ?PR?RAM_CALDATAINIT_USER?FLASH
            CODE    72E1H     002FH     UNIT         ?PR?_SUB_SENDMCUT?SUB
            CODE    7310H     002EH     UNIT         ?PR?ADC_SETINIT?ADCDRV
            CODE    733EH     002CH     UNIT         ?PR?_SETANGZERO?ANGAPP
            CODE    736AH     002AH     UNIT         ?PR?_COMP_GETADC?COMPASS
            CODE    7394H     0029H     UNIT         ?PR?_SETANGZEROADD?ANGAPP
            CODE    73BDH     0029H     UNIT         ?PR?_FLASH_PAGEERASE?FLASH
            CODE    73E6H     0028H     UNIT         ?PR?_MODRTU_WRADDR?MODBUSRTU
            CODE    740EH     0026H     UNIT         ?PR?_COMM_PUTSTR?COMM
            CODE    7434H     0026H     UNIT         ?PR?SYS_PORTINIT?INIT
            CODE    745AH     0025H     UNIT         ?PR?_MODRTU_WRBAUD?MODBUSRTU
            CODE    747FH     0025H     UNIT         ?PR?SUB_SENDANGXY?SUB
            CODE    74A4H     0024H     UNIT         ?PR?COMM_HARDWAREINIT?COMM
            CODE    74C8H     0024H     UNIT         ?PR?_VALINRANGE?FILTER
            CODE    74ECH     0023H     UNIT         ?PR?_COMP_SPIBYTESEND?COMPASS
BL51 BANKED LINKER/LOCATER V6.22                                                      06/27/2018  11:39:01  PAGE 6


            CODE    750FH     0022H     UNIT         ?PR?_SUB_INT16S2STR?SUB
            CODE    7531H     0021H     UNIT         ?PR?INIT_ALL?INIT
            CODE    7552H     0021H     UNIT         ?PR?_MODRTU_WR16U?MODBUSRTU
            CODE    7573H     0021H     UNIT         ?PR?_SUB_STR2INT8S?SUB
            CODE    7594H     0020H     UNIT         ?PR?_SUB_INT8U2STR?SUB
            CODE    75B4H     001EH     UNIT         ?PR?_MCUT_CALSAMP?CALMCUT
            CODE    75D2H     001BH     UNIT         ?PR?SNXDATAINIT?SENSOR
            CODE    75EDH     001BH     UNIT         ?PR?SNYDATAINIT?SENSOR
            CODE    7608H     001AH     UNIT         ?CO?ADCDRV
            CODE    7622H     0019H     UNIT         ?PR?SYS_CLKINIT?INIT
            CODE    763BH     0019H     UNIT         ?PR?SUB_SENDSYSNUM?SUB
            CODE    7654H     0018H     UNIT         ?PR?FLASH_USERDATAUPDATE?FLASH
            CODE    766CH     0018H     UNIT         ?PR?_COMM_PUTINT16U?SUB
            CODE    7684H     0017H     UNIT         ?PR?_TEMP_RDTEMPVAL?CALIBRATION
            CODE    769BH     0017H     UNIT         ?PR?_TEMP_WRTEMPVAL?CALIBRATION
            CODE    76B2H     0017H     UNIT         ?PR?_MCUT_RDADCVAL?CALMCUT
            CODE    76C9H     0017H     UNIT         ?PR?_MCUT_WRADCVAL?CALMCUT
            CODE    76E0H     0017H     UNIT         ?PR?_DELAY_MS?DELAY
            CODE    76F7H     0016H     UNIT         ?PR?TEMP_CALSTOP?CMDSUB
            CODE    770DH     0016H     UNIT         ?PR?_MODRTU_CHKCRC?MODBUSRTU
            CODE    7723H     0016H     UNIT         ?PR?_COMM_PUTINT8U?SUB
            CODE    7739H     0015H     UNIT         ?PR?_SETTEMPXCALTEMPVAL?CALIBRATION
            CODE    774EH     0015H     UNIT         ?PR?_SETTEMPYCALTEMPVAL?CALIBRATION
            CODE    7763H     0015H     UNIT         ?PR?_SETTEMPXCALADCVAL?CALIBRATION
            CODE    7778H     0015H     UNIT         ?PR?_SETANGXCALADCVAL?CALIBRATION
            CODE    778DH     0015H     UNIT         ?PR?_SETTEMPYCALADCVAL?CALIBRATION
            CODE    77A2H     0015H     UNIT         ?PR?_SETANGYCALADCVAL?CALIBRATION
            CODE    77B7H     0015H     UNIT         ?PR?_SETMCUTCALTEMPVAL?CALMCUT
            CODE    77CCH     0015H     UNIT         ?PR?_SETMCUTCALADCVAL?CALMCUT
            CODE    77E1H     0014H     UNIT         ?PR?_COMM_PUTINT32S?SUB
            CODE    77F5H     0012H     UNIT         ?PR?TEMP_CALSTA?CMDSUB
            CODE    7807H     0012H     UNIT         ?PR?_SNXFILTER?SENSOR
            CODE    7819H     0012H     UNIT         ?PR?_SNYFILTER?SENSOR
            CODE    782BH     0012H     UNIT         ?PR?TIMER2_TASKINMAIN?TIMER
            CODE    783DH     0011H     UNIT         ?PR?_TEMP_RDADCVAL?CALIBRATION
            CODE    784EH     0011H     UNIT         ?PR?_TEMP_WRADCVAL?CALIBRATION
            CODE    785FH     0011H     UNIT         ?PR?_ANG_RDADCVAL?CALIBRATION
            CODE    7870H     0011H     UNIT         ?PR?_ANG_WRADCVAL?CALIBRATION
            CODE    7881H     0011H     UNIT         ?PR?_MCUT_RDTEMPVAL?CALMCUT
            CODE    7892H     0011H     UNIT         ?PR?_MCUT_WRTEMPVAL?CALMCUT
            CODE    78A3H     0011H     UNIT         ?PR?GET_MCUTEMP?SENSOR
            CODE    78B4H     0010H     UNIT         ?PR?_MCUT_SET?CMDSUB
            CODE    78C4H     000FH     UNIT         ?PR?GETANGXSYSZERO?ANGAPP
            CODE    78D3H     000FH     UNIT         ?PR?GETANGYSYSZERO?ANGAPP
            CODE    78E2H     000FH     UNIT         ?PR?GETANGXUSRZERO?ANGAPP
            CODE    78F1H     000FH     UNIT         ?PR?GETANGYUSRZERO?ANGAPP
            CODE    7900H     000FH     UNIT         ?PR?GETANGXINST?ANGAPP
            CODE    790FH     000FH     UNIT         ?PR?GETANGYINST?ANGAPP
            CODE    791EH     000FH     UNIT         ?PR?GETANGXSET?ANGAPP
            CODE    792DH     000FH     UNIT         ?PR?GETANGYSET?ANGAPP
            CODE    793CH     000FH     UNIT         ?PR?GETANGPSET?ANGAPP
            CODE    794BH     000FH     UNIT         ?PR?GETANGXZEROUSR?ANGAPP
            CODE    795AH     000FH     UNIT         ?PR?GETANGYZEROUSR?ANGAPP
            CODE    7969H     000FH     UNIT         ?PR?GETANGXRELSYS?ANGAPP
            CODE    7978H     000FH     UNIT         ?PR?GETANGYRELSYS?ANGAPP
            CODE    7987H     000FH     UNIT         ?PR?DELAY_100US?DELAY
            CODE    7996H     000FH     UNIT         ?PR?GETXANG?SENSOR
BL51 BANKED LINKER/LOCATER V6.22                                                      06/27/2018  11:39:01  PAGE 7


            CODE    79A5H     000FH     UNIT         ?PR?GETYANG?SENSOR
            CODE    79B4H     000EH     UNIT         ?PR?_ANG_RDANGVAL?CALIBRATION
            CODE    79C2H     000EH     UNIT         ?PR?_ANG_WRANGVAL?CALIBRATION
            CODE    79D0H     000EH     UNIT         ?PR?FLASHCHK?FLASH
            CODE    79DEH     000EH     UNIT         ?PR?SUB_SENDOK?SUB
            CODE    79ECH     000EH     UNIT         ?PR?SUB_SENDERR?SUB
            CODE    79FAH     000EH     UNIT         ?PR?SUB_SENDSOFTVER?SUB
            CODE    7A08H     000DH     UNIT         ?PR?_MODRTU_RD16U?MODBUSRTU
            CODE    7A15H     000DH     UNIT         ?PR?COMM_PUTNEWLINESTA?SUB
            CODE    7A22H     000CH     UNIT         ?PR?ADC_INIT?ADCDRV
            CODE    7A2EH     000CH     UNIT         ?PR?_GETTEMPXCALTEMPVAL?CALIBRATION
            CODE    7A3AH     000CH     UNIT         ?PR?_GETANGXCALANGVAL?CALIBRATION
            CODE    7A46H     000CH     UNIT         ?PR?_GETTEMPYCALTEMPVAL?CALIBRATION
            CODE    7A52H     000CH     UNIT         ?PR?_GETANGYCALANGVAL?CALIBRATION
            CODE    7A5EH     000CH     UNIT         ?PR?_GETTEMPXCALADCVAL?CALIBRATION
            CODE    7A6AH     000CH     UNIT         ?PR?_GETANGXCALADCVAL?CALIBRATION
            CODE    7A76H     000CH     UNIT         ?PR?_GETTEMPYCALADCVAL?CALIBRATION
            CODE    7A82H     000CH     UNIT         ?PR?_GETANGYCALADCVAL?CALIBRATION
            CODE    7A8EH     000CH     UNIT         ?PR?_SETANGXCALANGVAL?CALIBRATION
            CODE    7A9AH     000CH     UNIT         ?PR?_SETANGYCALANGVAL?CALIBRATION
            CODE    7AA6H     000CH     UNIT         ?PR?_GETMCUTCALTEMPVAL?CALMCUT
            CODE    7AB2H     000CH     UNIT         ?PR?_GETMCUTCALADCVAL?CALMCUT
            CODE    7ABEH     000CH     UNIT         ?PR?_MODRTU_8TO16?MODBUSRTU
            CODE    7ACAH     000BH     UNIT         ?PR?_SETTEMPXCALCNT?CALIBRATION
            CODE    7AD5H     000BH     UNIT         ?PR?_SETANGXCALCNT?CALIBRATION
            CODE    7AE0H     000BH     UNIT         ?PR?_SETTEMPYCALCNT?CALIBRATION
            CODE    7AEBH     000BH     UNIT         ?PR?_SETANGYCALCNT?CALIBRATION
            CODE    7AF6H     000BH     UNIT         ?PR?_SETMCUTCALCNT?CALMCUT
            CODE    7B01H     000BH     UNIT         ?PR?COMP_SPISTA?COMPASS
            CODE    7B0CH     000BH     UNIT         ?PR?_MODRTU_WRCRC?MODBUSRTU
            CODE    7B17H     000BH     UNIT         ?PR?SUB_SYSRST?SUB
            CODE    7B22H     000AH     UNIT         ?PR?COMM_TIMERINIT?COMM
            CODE    7B2CH     000AH     UNIT         ?PR?DELAY_MS_?DELAY
            CODE    7B36H     0009H     UNIT         ?PR?ADC_GETXVAL?ADCDRV
            CODE    7B3FH     0009H     UNIT         ?PR?ADC_GETYVAL?ADCDRV
            CODE    7B48H     0009H     UNIT         ?PR?ADC_GETTEMP?ADCDRV
            CODE    7B51H     0009H     UNIT         ?PR?TEMPXCALCPRM?CALIBRATION
            CODE    7B5AH     0009H     UNIT         ?PR?TEMPYCALCPRM?CALIBRATION
            CODE    7B63H     0009H     UNIT         ?PR?ANGXCALCPRM?CALIBRATION
            CODE    7B6CH     0009H     UNIT         ?PR?ANGYCALCPRM?CALIBRATION
            CODE    7B75H     0009H     UNIT         ?PR?COMP_HARDWAREINIT?COMPASS
            CODE    7B7EH     0009H     UNIT         ?PR?RAM_CALDATAINIT?FLASH
            CODE    7B87H     0009H     UNIT         ?PR?ANGXCALC?SENSOR
            CODE    7B90H     0009H     UNIT         ?PR?ANGYCALC?SENSOR
            CODE    7B99H     0009H     UNIT         ?PR?GETXFTVAL?SENSOR
            CODE    7BA2H     0009H     UNIT         ?PR?GETYFTVAL?SENSOR
            CODE    7BABH     0009H     UNIT         ?PR?GETXOFTVAL?SENSOR
            CODE    7BB4H     0009H     UNIT         ?PR?GETYOFTVAL?SENSOR
            CODE    7BBDH     0008H     UNIT         ?PR?_SETTEMPCALCNT?CALIBRATION
            CODE    7BC5H     0008H     UNIT         ?PR?_SETANGCALCNT?CALIBRATION
            CODE    7BCDH     0008H     UNIT         ?PR?_GETXOFFSET?SENSOR
            CODE    7BD5H     0008H     UNIT         ?PR?_GETYOFFSET?SENSOR
            CODE    7BDDH     0007H     UNIT         ?PR?MAIN_TEMP?MAIN
            CODE    7BE4H     0006H     UNIT         ?PR?_SETANGXSYSZERO?ANGAPP
            CODE    7BEAH     0006H     UNIT         ?PR?_SETANGYSYSZERO?ANGAPP
            CODE    7BF0H     0006H     UNIT         ?PR?_SETANGXUSRZERO?ANGAPP
            CODE    7BF6H     0006H     UNIT         ?PR?_SETANGYUSRZERO?ANGAPP
BL51 BANKED LINKER/LOCATER V6.22                                                      06/27/2018  11:39:01  PAGE 8


            CODE    7BFCH     0006H     UNIT         ?PR?_SETANGXINST?ANGAPP
            CODE    7C02H     0006H     UNIT         ?PR?_SETANGYINST?ANGAPP
            CODE    7C08H     0006H     UNIT         ?PR?GETTEMPXCALCNT?CALIBRATION
            CODE    7C0EH     0006H     UNIT         ?PR?GETANGXCALCNT?CALIBRATION
            CODE    7C14H     0006H     UNIT         ?PR?GETANGYCALCNT?CALIBRATION
            CODE    7C1AH     0006H     UNIT         ?PR?GETMCUTCALCNT?CALMCUT
            CODE    7C20H     0006H     UNIT         ?PR?MCUT_CALSTOP?CALMCUT
            CODE    7C26H     0006H     UNIT         ?PR?COMM_SENDSTA?COMM
            CODE    7C2CH     0006H     UNIT         ?PR?COMP_SPIBUSYTEST?COMPASS
            CODE    7C32H     0006H     UNIT         ?PR?GETFILTERCNT?SENSOR
            CODE    7C38H     0006H     UNIT         ?PR?_SETFILTERCNT?SENSOR
            CODE    7C3EH     0004H     UNIT         ?PR?ADC_VREFINIT?ADCDRV
            CODE    7C42H     0004H     UNIT         ?PR?ADC_ISRINIT?ADCDRV
            CODE    7C46H     0004H     UNIT         ?PR?_TEMP_SETCALCNT?CALIBRATION
            CODE    7C4AH     0004H     UNIT         ?PR?_ANG_SETCALCNT?CALIBRATION
            CODE    7C4EH     0004H     UNIT         ?PR?_MCUT_SETCALCNT?CALMCUT
            CODE    7C52H     0004H     UNIT         ?PR?COMM_SENDSTOP?COMM
            CODE    7C56H     0003H     UNIT         ?PR?MCUT_CALSTA?CALMCUT
            CODE    7C59H     0003H     UNIT         ?PR?COMP_SPIEND?COMPASS



OVERLAY MAP OF MODULE:   .\obj\WTS125_M (?C_STARTUP)


SEGMENT                                        BIT_GROUP          DATA_GROUP          XDATA_GROUP
  +--> CALLED SEGMENT                       START    LENGTH     START    LENGTH     START    LENGTH
---------------------------------------------------------------------------------------------------
?C_C51STARTUP                               -----    -----      -----    -----      -----    -----
  +--> ?PR?MAIN?MAIN
  +--> ?C_INITSEG

?PR?MAIN?MAIN                               -----    -----      -----    -----      -----    -----
  +--> ?PR?INIT_ALL?INIT
  +--> ?PR?FLASH_CALDATAINIT?FLASH
  +--> ?PR?MAIN_TEMP?MAIN
  +--> ?PR?_DELAY_MS?DELAY
  +--> ?PR?SNPROC?SENSOR
  +--> ?PR?TIMER2_TASKINMAIN?TIMER
  +--> ?PR?SEND_TIMEPROC?SEND
  +--> ?PR?COMP_ANGCNTPROC?COMPASS
  +--> ?PR?COMP_CALSAMPPROC?COMPASS

?PR?INIT_ALL?INIT                           -----    -----      -----    -----      -----    -----
  +--> ?PR?SYS_PORTINIT?INIT
  +--> ?PR?SYS_CLKINIT?INIT
  +--> ?PR?COMM_HARDWAREINIT?COMM
  +--> ?PR?COMM_SOFTWAREINIT?COMM
  +--> ?PR?TIMER2_INIT?TIMER
  +--> ?PR?INIT_SYSTEMPARA?INIT
  +--> ?PR?ANGINIT?ANGAPP
  +--> ?PR?ADC_INIT?ADCDRV
  +--> ?PR?ADC_ENABLE?ADCDRV
  +--> ?PR?CALIBMTINIT?CALMCUT
  +--> ?PR?COMP_HARDWAREINIT?COMPASS

?PR?COMM_SOFTWAREINIT?COMM                  -----    -----      0021H    0003H      -----    -----
BL51 BANKED LINKER/LOCATER V6.22                                                      06/27/2018  11:39:01  PAGE 9



?PR?TIMER2_INIT?TIMER                       -----    -----      -----    -----      -----    -----
  +--> ?CO?SEND

?PR?INIT_SYSTEMPARA?INIT                    -----    -----      -----    -----      -----    -----
  +--> ?CO?SEND

?PR?ANGINIT?ANGAPP                          -----    -----      -----    -----      -----    -----
  +--> ?PR?SNINIT?SENSOR
  +--> ?PR?_SETANGXINST?ANGAPP
  +--> ?PR?_SETANGYINST?ANGAPP
  +--> ?PR?_SETANGXSYSZERO?ANGAPP
  +--> ?PR?_SETANGYSYSZERO?ANGAPP
  +--> ?PR?_SETANGXUSRZERO?ANGAPP
  +--> ?PR?_SETANGYUSRZERO?ANGAPP

?PR?SNINIT?SENSOR                           -----    -----      -----    -----      -----    -----
  +--> ?PR?CALIBINIT?CALIBRATION
  +--> ?PR?_SETFILTERCNT?SENSOR
  +--> ?PR?SNXDATAINIT?SENSOR
  +--> ?PR?_SNXFILTER?SENSOR
  +--> ?PR?_GETXOFFSET?SENSOR
  +--> ?PR?ANGXCALC?SENSOR
  +--> ?PR?SNYDATAINIT?SENSOR
  +--> ?PR?_SNYFILTER?SENSOR
  +--> ?PR?_GETYOFFSET?SENSOR
  +--> ?PR?ANGYCALC?SENSOR

?PR?CALIBINIT?CALIBRATION                   -----    -----      -----    -----      -----    -----
  +--> ?PR?_SETTEMPXCALCNT?CALIBRATION
  +--> ?PR?_GETTEMPXCALTEMPVAL?CALIBRATION
  +--> ?PR?_GETTEMPXCALADCVAL?CALIBRATION
  +--> ?PR?_SETTEMPXCALTEMPVAL?CALIBRATION
  +--> ?PR?_SETTEMPXCALADCVAL?CALIBRATION
  +--> ?PR?_SETTEMPYCALCNT?CALIBRATION
  +--> ?PR?_GETTEMPYCALTEMPVAL?CALIBRATION
  +--> ?PR?_GETTEMPYCALADCVAL?CALIBRATION
  +--> ?PR?_SETTEMPYCALTEMPVAL?CALIBRATION
  +--> ?PR?_SETTEMPYCALADCVAL?CALIBRATION
  +--> ?PR?_SETANGXCALCNT?CALIBRATION
  +--> ?PR?_GETANGXCALANGVAL?CALIBRATION
  +--> ?PR?_GETANGXCALADCVAL?CALIBRATION
  +--> ?PR?_SETANGXCALANGVAL?CALIBRATION
  +--> ?PR?_SETANGXCALADCVAL?CALIBRATION
  +--> ?PR?_SETANGYCALCNT?CALIBRATION
  +--> ?PR?_GETANGYCALANGVAL?CALIBRATION
  +--> ?PR?_GETANGYCALADCVAL?CALIBRATION
  +--> ?PR?_SETANGYCALANGVAL?CALIBRATION
  +--> ?PR?_SETANGYCALADCVAL?CALIBRATION

?PR?_SETTEMPXCALCNT?CALIBRATION             -----    -----      -----    -----      -----    -----
  +--> ?PR?_TEMP_SETCALCNT?CALIBRATION

?PR?_GETTEMPXCALTEMPVAL?CALIBRATION         -----    -----      -----    -----      -----    -----
  +--> ?PR?_TEMP_RDTEMPVAL?CALIBRATION

?PR?_GETTEMPXCALADCVAL?CALIBRATION          -----    -----      -----    -----      -----    -----
BL51 BANKED LINKER/LOCATER V6.22                                                      06/27/2018  11:39:01  PAGE 10


  +--> ?PR?_TEMP_RDADCVAL?CALIBRATION

?PR?_SETTEMPXCALTEMPVAL?CALIBRATION         -----    -----      -----    -----      -----    -----
  +--> ?PR?_TEMP_WRTEMPVAL?CALIBRATION

?PR?_TEMP_WRTEMPVAL?CALIBRATION             -----    -----      0029H    0006H      -----    -----

?PR?_SETTEMPXCALADCVAL?CALIBRATION          -----    -----      -----    -----      -----    -----
  +--> ?PR?_TEMP_WRADCVAL?CALIBRATION

?PR?_TEMP_WRADCVAL?CALIBRATION              -----    -----      0029H    0006H      -----    -----

?PR?_SETTEMPYCALCNT?CALIBRATION             -----    -----      -----    -----      -----    -----
  +--> ?PR?_TEMP_SETCALCNT?CALIBRATION

?PR?_GETTEMPYCALTEMPVAL?CALIBRATION         -----    -----      -----    -----      -----    -----
  +--> ?PR?_TEMP_RDTEMPVAL?CALIBRATION

?PR?_GETTEMPYCALADCVAL?CALIBRATION          -----    -----      -----    -----      -----    -----
  +--> ?PR?_TEMP_RDADCVAL?CALIBRATION

?PR?_SETTEMPYCALTEMPVAL?CALIBRATION         -----    -----      -----    -----      -----    -----
  +--> ?PR?_TEMP_WRTEMPVAL?CALIBRATION

?PR?_SETTEMPYCALADCVAL?CALIBRATION          -----    -----      -----    -----      -----    -----
  +--> ?PR?_TEMP_WRADCVAL?CALIBRATION

?PR?_SETANGXCALCNT?CALIBRATION              -----    -----      -----    -----      -----    -----
  +--> ?PR?_ANG_SETCALCNT?CALIBRATION

?PR?_GETANGXCALANGVAL?CALIBRATION           -----    -----      -----    -----      -----    -----
  +--> ?PR?_ANG_RDANGVAL?CALIBRATION

?PR?_GETANGXCALADCVAL?CALIBRATION           -----    -----      -----    -----      -----    -----
  +--> ?PR?_ANG_RDADCVAL?CALIBRATION

?PR?_SETANGXCALANGVAL?CALIBRATION           -----    -----      0039H    0005H      -----    -----
  +--> ?PR?_ANG_WRANGVAL?CALIBRATION

?PR?_ANG_WRANGVAL?CALIBRATION               -----    -----      003EH    0008H      -----    -----

?PR?_SETANGXCALADCVAL?CALIBRATION           -----    -----      -----    -----      -----    -----
  +--> ?PR?_ANG_WRADCVAL?CALIBRATION

?PR?_ANG_WRADCVAL?CALIBRATION               -----    -----      0039H    0006H      -----    -----

?PR?_SETANGYCALCNT?CALIBRATION              -----    -----      -----    -----      -----    -----
  +--> ?PR?_ANG_SETCALCNT?CALIBRATION

?PR?_GETANGYCALANGVAL?CALIBRATION           -----    -----      -----    -----      -----    -----
  +--> ?PR?_ANG_RDANGVAL?CALIBRATION

?PR?_GETANGYCALADCVAL?CALIBRATION           -----    -----      -----    -----      -----    -----
  +--> ?PR?_ANG_RDADCVAL?CALIBRATION

?PR?_SETANGYCALANGVAL?CALIBRATION           -----    -----      0039H    0005H      -----    -----
  +--> ?PR?_ANG_WRANGVAL?CALIBRATION
BL51 BANKED LINKER/LOCATER V6.22                                                      06/27/2018  11:39:01  PAGE 11



?PR?_SETANGYCALADCVAL?CALIBRATION           -----    -----      -----    -----      -----    -----
  +--> ?PR?_ANG_WRADCVAL?CALIBRATION

?PR?SNXDATAINIT?SENSOR                      -----    -----      -----    -----      -----    -----
  +--> ?PR?_SN_DATAINIT?SENSOR

?PR?_SN_DATAINIT?SENSOR                     -----    -----      0021H    0009H      -----    -----

?PR?_SNXFILTER?SENSOR                       -----    -----      -----    -----      -----    -----
  +--> ?PR?_SNFILTER?SENSOR

?PR?_SNFILTER?SENSOR                        -----    -----      0021H    0006H      -----    -----
  +--> ?PR?_VALINRANGE?FILTER
  +--> ?PR?_FILTER_1ST?FILTER

?PR?_FILTER_1ST?FILTER                      -----    -----      0027H    0007H      -----    -----

?PR?_GETXOFFSET?SENSOR                      -----    -----      -----    -----      -----    -----
  +--> ?PR?_GETOFFSET?SENSOR

?PR?_GETOFFSET?SENSOR                       -----    -----      0021H    0006H      -----    -----

?PR?ANGXCALC?SENSOR                         -----    -----      -----    -----      -----    -----
  +--> ?PR?_ANG_CALC?SENSOR

?PR?_ANG_CALC?SENSOR                        -----    -----      0021H    0007H      -----    -----
  +--> ?PR?_GETANGCALCVAL?SENSOR
  +--> ?PR?ASIN?ASIN

?PR?_GETANGCALCVAL?SENSOR                   -----    -----      0028H    0006H      -----    -----

?PR?ASIN?ASIN                               -----    -----      -----    -----      -----    -----
  +--> ?PR?SQRT?SQRT
  +--> ?PR?ATAN?ATAN

?PR?SQRT?SQRT                               -----    -----      004AH    0004H      -----    -----

?PR?ATAN?ATAN                               0020H.2  0000H.2    004AH    0004H      -----    -----

?PR?SNYDATAINIT?SENSOR                      -----    -----      -----    -----      -----    -----
  +--> ?PR?_SN_DATAINIT?SENSOR

?PR?_SNYFILTER?SENSOR                       -----    -----      -----    -----      -----    -----
  +--> ?PR?_SNFILTER?SENSOR

?PR?_GETYOFFSET?SENSOR                      -----    -----      -----    -----      -----    -----
  +--> ?PR?_GETOFFSET?SENSOR

?PR?ANGYCALC?SENSOR                         -----    -----      -----    -----      -----    -----
  +--> ?PR?_ANG_CALC?SENSOR

?PR?ADC_INIT?ADCDRV                         -----    -----      -----    -----      -----    -----
  +--> ?PR?ADC_SETINIT?ADCDRV
  +--> ?PR?ADC_VREFINIT?ADCDRV
  +--> ?PR?ADC_ISRINIT?ADCDRV
  +--> ?PR?ADCENTITYINIT?ADCDRV
BL51 BANKED LINKER/LOCATER V6.22                                                      06/27/2018  11:39:01  PAGE 12



?PR?CALIBMTINIT?CALMCUT                     -----    -----      -----    -----      -----    -----
  +--> ?PR?_SETMCUTCALCNT?CALMCUT
  +--> ?PR?_GETMCUTCALTEMPVAL?CALMCUT
  +--> ?PR?_GETMCUTCALADCVAL?CALMCUT
  +--> ?PR?_SETMCUTCALTEMPVAL?CALMCUT
  +--> ?PR?_SETMCUTCALADCVAL?CALMCUT

?PR?_SETMCUTCALCNT?CALMCUT                  -----    -----      -----    -----      -----    -----
  +--> ?PR?_MCUT_SETCALCNT?CALMCUT

?PR?_GETMCUTCALTEMPVAL?CALMCUT              -----    -----      -----    -----      -----    -----
  +--> ?PR?_MCUT_RDTEMPVAL?CALMCUT

?PR?_GETMCUTCALADCVAL?CALMCUT               -----    -----      -----    -----      -----    -----
  +--> ?PR?_MCUT_RDADCVAL?CALMCUT

?PR?_SETMCUTCALTEMPVAL?CALMCUT              -----    -----      -----    -----      -----    -----
  +--> ?PR?_MCUT_WRTEMPVAL?CALMCUT

?PR?_MCUT_WRTEMPVAL?CALMCUT                 -----    -----      0029H    0006H      -----    -----

?PR?_SETMCUTCALADCVAL?CALMCUT               -----    -----      -----    -----      -----    -----
  +--> ?PR?_MCUT_WRADCVAL?CALMCUT

?PR?_MCUT_WRADCVAL?CALMCUT                  -----    -----      0029H    0006H      -----    -----

?PR?FLASH_CALDATAINIT?FLASH                 -----    -----      0021H    0001H      -----    -----
  +--> ?PR?_FLASH_BUFRD?FLASH
  +--> ?PR?FLASHCHK?FLASH
  +--> ?PR?RAM_CALDATAINIT?FLASH
  +--> ?PR?FLASH_CALDATAUPDATE?FLASH
  +--> ?PR?_RAM_BUF2CALDATA?FLASH
  +--> ?PR?_FLASH_CHECKSUM?FLASH
  +--> ?PR?FLASHAREA_USER?FLASH
  +--> ?PR?_FLASH_CALDATAUPDATE_USER?FLASH
  +--> ?PR?FLASH_COMPDATAINIT?FLASH
  +--> ?PR?GETANGXCALCNT?CALIBRATION
  +--> ?PR?GETANGYCALCNT?CALIBRATION
  +--> ?PR?ADC_XCALSTOP?CMDSUB
  +--> ?PR?ADC_YCALSTOP?CMDSUB
  +--> ?PR?TEMP_CALSTOP?CMDSUB
  +--> ?PR?MCUT_CALSTOP?CALMCUT
  +--> ?CO?SEND

?PR?_FLASH_BUFRD?FLASH                      0020H.2  0000H.1    0023H    0009H      -----    -----

?PR?RAM_CALDATAINIT?FLASH                   -----    -----      -----    -----      -----    -----
  +--> ?PR?ANGCALDATAINIT?CALIBRATION
  +--> ?PR?TEMPCALDATAINIT?CALIBRATION
  +--> ?PR?MTCALDATAINIT?CALMCUT

?PR?ANGCALDATAINIT?CALIBRATION              -----    -----      -----    -----      -----    -----
  +--> ?PR?_SETANGCALCNT?CALIBRATION

?PR?_SETANGCALCNT?CALIBRATION               -----    -----      -----    -----      -----    -----
  +--> ?PR?_SETANGXCALCNT?CALIBRATION
BL51 BANKED LINKER/LOCATER V6.22                                                      06/27/2018  11:39:01  PAGE 13


  +--> ?PR?_SETANGYCALCNT?CALIBRATION

?PR?TEMPCALDATAINIT?CALIBRATION             -----    -----      0022H    0001H      -----    -----
  +--> ?PR?_SETTEMPCALCNT?CALIBRATION

?PR?_SETTEMPCALCNT?CALIBRATION              -----    -----      -----    -----      -----    -----
  +--> ?PR?_SETTEMPXCALCNT?CALIBRATION
  +--> ?PR?_SETTEMPYCALCNT?CALIBRATION

?PR?MTCALDATAINIT?CALMCUT                   -----    -----      0022H    0001H      -----    -----
  +--> ?PR?_SETMCUTCALCNT?CALMCUT

?PR?FLASH_CALDATAUPDATE?FLASH               -----    -----      -----    -----      -----    -----
  +--> ?PR?_RAM_CALDATA2BUF?FLASH
  +--> ?PR?_FLASHUPDATE?FLASH

?PR?_RAM_CALDATA2BUF?FLASH                  -----    -----      0042H    0006H      -----    -----
  +--> ?PR?_GETANGXCALANGVAL?CALIBRATION
  +--> ?PR?_GETANGYCALANGVAL?CALIBRATION
  +--> ?PR?_GETANGXCALADCVAL?CALIBRATION
  +--> ?PR?_GETANGYCALADCVAL?CALIBRATION
  +--> ?PR?_GETTEMPXCALTEMPVAL?CALIBRATION
  +--> ?PR?_GETTEMPXCALADCVAL?CALIBRATION
  +--> ?PR?_GETTEMPYCALADCVAL?CALIBRATION
  +--> ?PR?GETANGXCALCNT?CALIBRATION
  +--> ?PR?GETTEMPXCALCNT?CALIBRATION
  +--> ?PR?GETANGXSYSZERO?ANGAPP
  +--> ?PR?GETANGYSYSZERO?ANGAPP
  +--> ?PR?GETMCUTCALCNT?CALMCUT
  +--> ?PR?_GETMCUTCALTEMPVAL?CALMCUT
  +--> ?PR?_GETMCUTCALADCVAL?CALMCUT
  +--> ?PR?GETFILTERCNT?SENSOR
  +--> ?PR?GETANGXUSRZERO?ANGAPP
  +--> ?PR?GETANGYUSRZERO?ANGAPP
  +--> ?PR?GETANGXINST?ANGAPP
  +--> ?PR?GETANGYINST?ANGAPP
  +--> ?PR?GETANGXSET?ANGAPP
  +--> ?PR?GETANGYSET?ANGAPP
  +--> ?PR?GETANGPSET?ANGAPP
  +--> ?PR?_FLASH_CHECKSUM?FLASH

?PR?_FLASH_CHECKSUM?FLASH                   -----    -----      0048H    0005H      -----    -----

?PR?_FLASHUPDATE?FLASH                      0020H.2  0000H.1    0042H    0007H      -----    -----
  +--> ?PR?_FLASH_PAGEERASE?FLASH
  +--> ?PR?_DELAY_MS?DELAY
  +--> ?PR?_FLASH_BUFWR?FLASH

?PR?_FLASH_PAGEERASE?FLASH                  0020H.3  0000H.1    -----    -----      -----    -----

?PR?_DELAY_MS?DELAY                         -----    -----      -----    -----      -----    -----
  +--> ?PR?DELAY_MS_?DELAY

?PR?DELAY_MS_?DELAY                         -----    -----      -----    -----      -----    -----
  +--> ?PR?DELAY_100US?DELAY

?PR?_FLASH_BUFWR?FLASH                      0020H.3  0000H.1    0049H    000BH      -----    -----
BL51 BANKED LINKER/LOCATER V6.22                                                      06/27/2018  11:39:01  PAGE 14



?PR?_RAM_BUF2CALDATA?FLASH                  -----    -----      0023H    0006H      -----    -----
  +--> ?PR?_SETANGXCALANGVAL?CALIBRATION
  +--> ?PR?_SETANGYCALANGVAL?CALIBRATION
  +--> ?PR?_SETANGXCALADCVAL?CALIBRATION
  +--> ?PR?_SETANGYCALADCVAL?CALIBRATION
  +--> ?PR?_SETTEMPXCALTEMPVAL?CALIBRATION
  +--> ?PR?_SETTEMPXCALADCVAL?CALIBRATION
  +--> ?PR?_SETTEMPYCALADCVAL?CALIBRATION
  +--> ?PR?_SETANGCALCNT?CALIBRATION
  +--> ?PR?_SETTEMPCALCNT?CALIBRATION
  +--> ?PR?_SETANGXSYSZERO?ANGAPP
  +--> ?PR?_SETANGYSYSZERO?ANGAPP
  +--> ?PR?_SETMCUTCALCNT?CALMCUT
  +--> ?PR?_SETMCUTCALTEMPVAL?CALMCUT
  +--> ?PR?_SETMCUTCALADCVAL?CALMCUT
  +--> ?PR?_SETFILTERCNT?SENSOR
  +--> ?PR?_SETANGXUSRZERO?ANGAPP
  +--> ?PR?_SETANGYUSRZERO?ANGAPP
  +--> ?PR?_SETANGXINST?ANGAPP
  +--> ?PR?_SETANGYINST?ANGAPP

?PR?FLASHAREA_USER?FLASH                    -----    -----      -----    -----      -----    -----
  +--> ?PR?_FLASH_BUFRD?FLASH
  +--> ?PR?FLASHCHK?FLASH
  +--> ?PR?_FLASH_CHECKSUM?FLASH
  +--> ?PR?RAM_CALDATAINIT_USER?FLASH
  +--> ?PR?_FLASH_CALDATAUPDATE_USER?FLASH
  +--> ?PR?_RAM_BUF2CALDATA?FLASH

?PR?RAM_CALDATAINIT_USER?FLASH              -----    -----      -----    -----      -----    -----
  +--> ?PR?_SETANGXUSRZERO?ANGAPP
  +--> ?PR?_SETANGYUSRZERO?ANGAPP
  +--> ?PR?_SETANGXINST?ANGAPP
  +--> ?PR?_SETANGYINST?ANGAPP
  +--> ?PR?INIT_SYSTEMPARA?INIT

?PR?_FLASH_CALDATAUPDATE_USER?FLASH         -----    -----      0039H    0009H      -----    -----
  +--> ?PR?_RAM_CALDATA2BUF?FLASH
  +--> ?PR?_FLASHUPDATE?FLASH

?PR?FLASH_COMPDATAINIT?FLASH                -----    -----      0022H    0001H      -----    -----
  +--> ?PR?_FLASH_BUFRD?FLASH
  +--> ?PR?FLASHCHK?FLASH
  +--> ?PR?COMP_CALDATAINIT?COMPASS
  +--> ?PR?_RAM_CALDATA2BUF?FLASH
  +--> ?PR?_FLASHUPDATE?FLASH
  +--> ?PR?_RAM_BUF2CALDATA?FLASH

?PR?ADC_XCALSTOP?CMDSUB                     -----    -----      0022H    0001H      -----    -----
  +--> ?PR?_SUB_BUFBUBBLE32S?SUB
  +--> ?PR?ANGXCALCPRM?CALIBRATION

?PR?_SUB_BUFBUBBLE32S?SUB                   -----    -----      0023H    0009H      -----    -----
  +--> ?PR?_SUB_SBUFSWITCH?SUB
  +--> ?PR?_SUB_UBUFSWITCH?SUB

BL51 BANKED LINKER/LOCATER V6.22                                                      06/27/2018  11:39:01  PAGE 15


?PR?_SUB_SBUFSWITCH?SUB                     -----    -----      002CH    0009H      -----    -----

?PR?_SUB_UBUFSWITCH?SUB                     -----    -----      003DH    0007H      -----    -----

?PR?ANGXCALCPRM?CALIBRATION                 -----    -----      -----    -----      -----    -----
  +--> ?PR?_ANG_CALCPRM?CALIBRATION

?PR?_ANG_CALCPRM?CALIBRATION                -----    -----      0023H    000CH      -----    -----
  +--> ?PR?SIN?SIN

?PR?SIN?SIN                                 0020H.2  0000H.1    004AH    0004H      -----    -----

?PR?ADC_YCALSTOP?CMDSUB                     -----    -----      0022H    0001H      -----    -----
  +--> ?PR?_SUB_BUFBUBBLE32S?SUB
  +--> ?PR?ANGYCALCPRM?CALIBRATION

?PR?ANGYCALCPRM?CALIBRATION                 -----    -----      -----    -----      -----    -----
  +--> ?PR?_ANG_CALCPRM?CALIBRATION

?PR?TEMP_CALSTOP?CMDSUB                     -----    -----      -----    -----      -----    -----
  +--> ?PR?TEMPSORTANDCALCPRM?CMDSUB

?PR?TEMPSORTANDCALCPRM?CMDSUB               -----    -----      -----    -----      -----    -----
  +--> ?PR?_SUB_BUFBUBBLE16U?SUB
  +--> ?PR?TEMPXCALCPRM?CALIBRATION
  +--> ?PR?TEMPYCALCPRM?CALIBRATION

?PR?_SUB_BUFBUBBLE16U?SUB                   -----    -----      0031H    000CH      -----    -----
  +--> ?PR?_SUB_UBUFSWITCH?SUB
  +--> ?PR?_SUB_16SBUFSWITCH?SUB

?PR?_SUB_16SBUFSWITCH?SUB                   -----    -----      003DH    0007H      -----    -----

?PR?TEMPXCALCPRM?CALIBRATION                -----    -----      -----    -----      -----    -----
  +--> ?PR?_TEMP_CALCPRM?CALIBRATION

?PR?_TEMP_CALCPRM?CALIBRATION               -----    -----      0031H    0004H      -----    -----

?PR?TEMPYCALCPRM?CALIBRATION                -----    -----      -----    -----      -----    -----
  +--> ?PR?_TEMP_CALCPRM?CALIBRATION

?PR?MCUT_CALSTOP?CALMCUT                    -----    -----      -----    -----      -----    -----
  +--> ?PR?MCUTCALCPRM?CALMCUT

?PR?MCUTCALCPRM?CALMCUT                     -----    -----      -----    -----      -----    -----
  +--> ?PR?_SUB_BUFBUBBLE16S?SUB
  +--> ?PR?_MCUT_CALCPRM?CALMCUT

?PR?_SUB_BUFBUBBLE16S?SUB                   -----    -----      0025H    0009H      -----    -----
  +--> ?PR?_SUB_16SBUFSWITCH?SUB
  +--> ?PR?_SUB_UBUFSWITCH?SUB

?PR?_MCUT_CALCPRM?CALMCUT                   -----    -----      0025H    0008H      -----    -----

?PR?SNPROC?SENSOR                           -----    -----      -----    -----      -----    -----
  +--> ?PR?ADC_GETXVAL?ADCDRV
  +--> ?PR?GET_MCUTEMP?SENSOR
BL51 BANKED LINKER/LOCATER V6.22                                                      06/27/2018  11:39:01  PAGE 16


  +--> ?PR?ADC_GETYVAL?ADCDRV

?PR?GET_MCUTEMP?SENSOR                      -----    -----      -----    -----      -----    -----
  +--> ?PR?ADC_GETTEMP?ADCDRV

?PR?TIMER2_TASKINMAIN?TIMER                 -----    -----      -----    -----      -----    -----
  +--> ?PR?SUB_SENDANGXY?SUB

?PR?SUB_SENDANGXY?SUB                       -----    -----      -----    -----      -----    -----
  +--> ?CO?SUB
  +--> ?PR?_COMM_PUTSTR?COMM
  +--> ?PR?GETXANGALLSETVAL?ANGAPP
  +--> ?PR?_COMM_PUTINT32S?SUB
  +--> ?PR?GETYANGALLSETVAL?ANGAPP
  +--> ?PR?COMM_PUTNEWLINESTA?SUB

?PR?_COMM_PUTSTR?COMM                       -----    -----      0039H    0003H      -----    -----
  +--> ?PR?_COMM_PUTCHAR?COMM

?PR?_COMM_PUTCHAR?COMM                      -----    -----      003CH    0003H      -----    -----

?PR?GETXANGALLSETVAL?ANGAPP                 -----    -----      003AH    0004H      -----    -----
  +--> ?PR?GETXANG?SENSOR
  +--> ?PR?_SETANGZERO?ANGAPP
  +--> ?PR?_SETANGZEROADD?ANGAPP

?PR?_SETANGZERO?ANGAPP                      -----    -----      003EH    0004H      -----    -----

?PR?_SETANGZEROADD?ANGAPP                   -----    -----      003EH    0004H      -----    -----

?PR?_COMM_PUTINT32S?SUB                     -----    -----      -----    -----      -----    -----
  +--> ?PR?_SUB_INT32S2STR?SUB
  +--> ?PR?_COMM_PUTSTR?COMM

?PR?_SUB_INT32S2STR?SUB                     -----    -----      002CH    0007H      -----    -----

?PR?GETYANGALLSETVAL?ANGAPP                 -----    -----      003AH    0004H      -----    -----
  +--> ?PR?GETYANG?SENSOR
  +--> ?PR?_SETANGZERO?ANGAPP
  +--> ?PR?_SETANGZEROADD?ANGAPP

?PR?COMM_PUTNEWLINESTA?SUB                  -----    -----      -----    -----      -----    -----
  +--> ?PR?_COMM_PUTCHAR?COMM
  +--> ?PR?COMM_SENDSTA?COMM

?PR?SEND_TIMEPROC?SEND                      -----    -----      -----    -----      -----    -----
  +--> ?PR?_COMM_GETCHAR?COMM
  +--> ?PR?_CUSTOMPRO?MODBUSRTU
  +--> ?PR?_MODRTU_RXPROC?MODBUSRTU
  +--> ?PR?_SEND_RDEAL?SEND
  +--> ?PR?_SEND_CDEAL?SEND
  +--> ?PR?_SEND_SDEAL?SEND
  +--> ?PR?_SEND_UDEAL?SEND
  +--> ?PR?_SEND_WDEAL?SEND
  +--> ?PR?_SEND_TDEAL?SEND

?PR?_COMM_GETCHAR?COMM                      -----    -----      0021H    0006H      -----    -----
BL51 BANKED LINKER/LOCATER V6.22                                                      06/27/2018  11:39:01  PAGE 17



?PR?_CUSTOMPRO?MODBUSRTU                    -----    -----      0021H    0004H      0C77H    000AH
  +--> ?PR?_CHKCODE?MODBUSRTU
  +--> ?PR?GETXANGALLSETVAL?ANGAPP
  +--> ?PR?_INT32S2VAL?MODBUSRTU
  +--> ?PR?GETYANGALLSETVAL?ANGAPP
  +--> ?PR?GET_MCUTEMPINCELSIUS?SENSOR
  +--> ?PR?_SUMCHK?MODBUSRTU
  +--> ?PR?_COMM_PUTSTR?COMM
  +--> ?PR?COMM_SENDSTA?COMM
  +--> ?PR?_DELAY_MS?DELAY
  +--> ?CO?SEND
  +--> ?PR?FLASH_USERDATAUPDATE?FLASH

?PR?_CHKCODE?MODBUSRTU                      -----    -----      0025H    0003H      -----    -----

?PR?_INT32S2VAL?MODBUSRTU                   -----    -----      0025H    0007H      -----    -----

?PR?GET_MCUTEMPINCELSIUS?SENSOR             -----    -----      -----    -----      -----    -----
  +--> ?PR?ADC_GETTEMP?ADCDRV

?PR?_SUMCHK?MODBUSRTU                       -----    -----      0025H    0004H      0C81H    0001H

?PR?FLASH_USERDATAUPDATE?FLASH              -----    -----      -----    -----      -----    -----
  +--> ?PR?_FLASH_CALDATAUPDATE_USER?FLASH

?PR?_MODRTU_RXPROC?MODBUSRTU                -----    -----      0021H    0004H      -----    -----
  +--> ?PR?_MODRTU_CHKCRC?MODBUSRTU
  +--> ?PR?_MODRTU_RDREG?MODBUSRTU
  +--> ?PR?_MODRTU_WRREG?MODBUSRTU
  +--> ?PR?_MODRTU_RLYERROR?MODBUSRTU

?PR?_MODRTU_CHKCRC?MODBUSRTU                -----    -----      -----    -----      -----    -----
  +--> ?PR?_MODBUSCRCCNT?MODBUSCRC

?PR?_MODBUSCRCCNT?MODBUSCRC                 -----    -----      0035H    0003H      -----    -----
  +--> ?CO?MODBUSCRC

?PR?_MODRTU_RDREG?MODBUSRTU                 -----    -----      0025H    000DH      -----    -----
  +--> ?PR?_MODRTU_8TO16?MODBUSRTU
  +--> ?PR?_MODRTU_RDVAL?MODBUSRTU
  +--> ?PR?_MODRTU_RLYERROR?MODBUSRTU
  +--> ?PR?_MODBUSCRCCNT?MODBUSCRC
  +--> ?PR?_MODRTU_WRCRC?MODBUSRTU
  +--> ?PR?_COMM_PUTSTR?COMM
  +--> ?PR?COMM_SENDSTA?COMM

?PR?_MODRTU_RDVAL?MODBUSRTU                 -----    -----      0032H    0008H      0C77H    0004H
  +--> ?PR?GETXANGALLSETVAL?ANGAPP
  +--> ?PR?GETYANGALLSETVAL?ANGAPP
  +--> ?PR?GETANGP?ANGAPP
  +--> ?PR?GETANGXINST?ANGAPP
  +--> ?PR?GETANGYINST?ANGAPP
  +--> ?PR?GETANGXSET?ANGAPP
  +--> ?PR?GETANGYSET?ANGAPP
  +--> ?PR?GETANGPSET?ANGAPP
  +--> ?PR?GET_MCUTEMP?SENSOR
BL51 BANKED LINKER/LOCATER V6.22                                                      06/27/2018  11:39:01  PAGE 18


  +--> ?PR?_GETTEMPXCALTEMPVAL?CALIBRATION
  +--> ?PR?_GETTEMPXCALADCVAL?CALIBRATION
  +--> ?PR?_GETTEMPYCALADCVAL?CALIBRATION
  +--> ?PR?GETXOFTVAL?SENSOR
  +--> ?PR?_FLOATTOINT?MODBUSRTU
  +--> ?PR?_GETANGXCALADCVAL?CALIBRATION
  +--> ?PR?_GETANGXCALANGVAL?CALIBRATION
  +--> ?PR?GETYOFTVAL?SENSOR
  +--> ?PR?_GETANGYCALADCVAL?CALIBRATION
  +--> ?PR?_GETANGYCALANGVAL?CALIBRATION
  +--> ?PR?GETXFTVAL?SENSOR
  +--> ?PR?GETYFTVAL?SENSOR
  +--> ?PR?GETXANG?SENSOR
  +--> ?PR?GETYANG?SENSOR
  +--> ?PR?GETANGXRELSYS?ANGAPP
  +--> ?PR?GETANGYRELSYS?ANGAPP
  +--> ?PR?GETANGXZEROUSR?ANGAPP
  +--> ?PR?GETANGYZEROUSR?ANGAPP
  +--> ?PR?GETANGXSYSZERO?ANGAPP
  +--> ?PR?GETANGYSYSZERO?ANGAPP
  +--> ?PR?GETANGXUSRZERO?ANGAPP
  +--> ?PR?GETANGYUSRZERO?ANGAPP
  +--> ?PR?GETANGXCALCNT?CALIBRATION
  +--> ?PR?GETTEMPXCALCNT?CALIBRATION
  +--> ?PR?GETFILTERCNT?SENSOR
  +--> ?PR?_MODRTU_RD16U?MODBUSRTU

?PR?GETANGP?ANGAPP                          -----    -----      -----    -----      -----    -----
  +--> ?PR?GETXANGALLSETVAL?ANGAPP
  +--> ?PR?GETYANGALLSETVAL?ANGAPP
  +--> ?PR?_PANGCALC?ANGAPP

?PR?_PANGCALC?ANGAPP                        -----    -----      003AH    0010H      -----    -----
  +--> ?PR?SIN?SIN
  +--> ?PR?SQRT?SQRT
  +--> ?PR?ASIN?ASIN

?PR?_FLOATTOINT?MODBUSRTU                   -----    -----      003AH    000CH      -----    -----

?PR?_MODRTU_RLYERROR?MODBUSRTU              -----    -----      0032H    0003H      -----    -----
  +--> ?PR?_MODBUSCRCCNT?MODBUSCRC
  +--> ?PR?_COMM_PUTSTR?COMM
  +--> ?PR?COMM_SENDSTA?COMM

?PR?_MODRTU_WRREG?MODBUSRTU                 -----    -----      0025H    000CH      -----    -----
  +--> ?PR?_MODRTU_8TO16?MODBUSRTU
  +--> ?PR?_MODRTU_WRVAL?MODBUSRTU
  +--> ?PR?_MODRTU_RLYERROR?MODBUSRTU
  +--> ?PR?_MODBUSCRCCNT?MODBUSCRC
  +--> ?PR?_MODRTU_WRCRC?MODBUSRTU
  +--> ?PR?_COMM_PUTSTR?COMM
  +--> ?PR?COMM_SENDSTA?COMM
  +--> ?PR?FLASH_USERDATAUPDATE?FLASH

?PR?_MODRTU_WRVAL?MODBUSRTU                 -----    -----      0031H    0008H      0C77H    0008H
  +--> ?PR?_MODRTU_WR16U?MODBUSRTU
  +--> ?PR?_SETANGXINST?ANGAPP
BL51 BANKED LINKER/LOCATER V6.22                                                      06/27/2018  11:39:01  PAGE 19


  +--> ?PR?_SETANGYINST?ANGAPP
  +--> ?PR?_MODRTU_SETZERO?MODBUSRTU
  +--> ?PR?_MODRTU_WRADDR?MODBUSRTU
  +--> ?PR?_MODRTU_WRBAUD?MODBUSRTU
  +--> ?PR?COMP_CALINIT?COMPASS
  +--> ?PR?COMP_CALPRMTCNT?COMPASS
  +--> ?PR?COMP_HARDWAREINIT?COMPASS
  +--> ?PR?GETANGXRELSYS?ANGAPP
  +--> ?PR?_SETANGXUSRZERO?ANGAPP
  +--> ?PR?FLASH_USERDATAUPDATE?FLASH
  +--> ?PR?_SETANGCALCNT?CALIBRATION
  +--> ?PR?GETANGXCALCNT?CALIBRATION
  +--> ?PR?_SETANGXCALANGVAL?CALIBRATION
  +--> ?PR?GETXOFTVAL?SENSOR
  +--> ?PR?_SETANGXCALADCVAL?CALIBRATION
  +--> ?PR?_SETANGYCALANGVAL?CALIBRATION
  +--> ?PR?GETYOFTVAL?SENSOR
  +--> ?PR?_SETANGYCALADCVAL?CALIBRATION
  +--> ?PR?FLASH_CALDATAUPDATE?FLASH
  +--> ?PR?GETXANG?SENSOR
  +--> ?PR?_SETANGXSYSZERO?ANGAPP
  +--> ?PR?GETYANG?SENSOR
  +--> ?PR?_SETANGYSYSZERO?ANGAPP
  +--> ?PR?GETANGYRELSYS?ANGAPP
  +--> ?PR?_SETANGYUSRZERO?ANGAPP
  +--> ?PR?_SETFILTERCNT?SENSOR

?PR?_MODRTU_SETZERO?MODBUSRTU               -----    -----      0039H    0002H      -----    -----
  +--> ?PR?_MODRTU_8TO16?MODBUSRTU
  +--> ?PR?GETANGXRELSYS?ANGAPP
  +--> ?PR?_SETANGXUSRZERO?ANGAPP
  +--> ?PR?GETANGYRELSYS?ANGAPP
  +--> ?PR?_SETANGYUSRZERO?ANGAPP

?PR?COMP_CALPRMTCNT?COMPASS                 -----    -----      -----    -----      0C7FH    000CH
  +--> ?PR?ASIN?ASIN
  +--> ?PR?SIN?SIN

?PR?_SEND_RDEAL?SEND                        -----    -----      0021H    0005H      -----    -----
  +--> ?CO?SEND
  +--> ?PR?_STRNCMP?STRNCMP
  +--> ?PR?SUB_SENDPRMTALL?SUB
  +--> ?PR?SUB_SENDANGXYP?SUB
  +--> ?PR?SUB_SENDANGXY?SUB
  +--> ?PR?SUB_SENDSOFTVER?SUB
  +--> ?PR?SUB_SENDSYSNUM?SUB
  +--> ?PR?_SUB_STR2INT8U?SUB
  +--> ?PR?_SUB_SENDTEMPCAL?SUB
  +--> ?PR?_SUB_SENDMCUTEMPCAL?SUB
  +--> ?PR?SUB_SENDERR?SUB

?PR?_STRNCMP?STRNCMP                        -----    -----      002CH    0008H      -----    -----

?PR?SUB_SENDPRMTALL?SUB                     -----    -----      -----    -----      -----    -----
  +--> ?CO?SUB
  +--> ?PR?_COMM_PUTSTR?COMM
  +--> ?PR?GET_MCUTEMP?SENSOR
BL51 BANKED LINKER/LOCATER V6.22                                                      06/27/2018  11:39:01  PAGE 20


  +--> ?PR?_COMM_PUTINT16U?SUB
  +--> ?PR?GETXFTVAL?SENSOR
  +--> ?PR?_COMM_PUTCHAR?COMM
  +--> ?PR?GETXOFTVAL?SENSOR
  +--> ?PR?GETXANG?SENSOR
  +--> ?PR?_COMM_PUTINT32S?SUB
  +--> ?PR?GETYFTVAL?SENSOR
  +--> ?PR?GETYOFTVAL?SENSOR
  +--> ?PR?GETYANG?SENSOR
  +--> ?PR?GET_MCUTEMPINCELSIUS?SENSOR
  +--> ?PR?COMM_PUTNEWLINESTA?SUB

?PR?_COMM_PUTINT16U?SUB                     -----    -----      -----    -----      -----    -----
  +--> ?PR?_SUB_INT16U2STR?SUB
  +--> ?PR?_COMM_PUTSTR?COMM

?PR?_SUB_INT16U2STR?SUB                     -----    -----      0039H    0005H      -----    -----

?PR?SUB_SENDANGXYP?SUB                      -----    -----      -----    -----      -----    -----
  +--> ?CO?SUB
  +--> ?PR?_COMM_PUTSTR?COMM
  +--> ?PR?GETXANGALLSETVAL?ANGAPP
  +--> ?PR?_COMM_PUTINT32S?SUB
  +--> ?PR?GETYANGALLSETVAL?ANGAPP
  +--> ?PR?GETANGP?ANGAPP
  +--> ?PR?COMM_PUTNEWLINESTA?SUB

?PR?SUB_SENDSOFTVER?SUB                     -----    -----      -----    -----      -----    -----
  +--> ?CO?SUB
  +--> ?PR?_COMM_PUTSTR?COMM
  +--> ?PR?COMM_PUTNEWLINESTA?SUB

?PR?SUB_SENDSYSNUM?SUB                      -----    -----      -----    -----      -----    -----
  +--> ?CO?SUB
  +--> ?PR?_COMM_PUTSTR?COMM
  +--> ?PR?COMM_PUTNEWLINESTA?SUB

?PR?_SUB_SENDTEMPCAL?SUB                    -----    -----      0026H    0001H      -----    -----
  +--> ?CO?SUB
  +--> ?PR?_COMM_PUTSTR?COMM
  +--> ?PR?_COMM_PUTINT8U?SUB
  +--> ?PR?_COMM_PUTCHAR?COMM
  +--> ?PR?_GETTEMPXCALTEMPVAL?CALIBRATION
  +--> ?PR?_COMM_PUTINT16U?SUB
  +--> ?PR?_GETTEMPXCALADCVAL?CALIBRATION
  +--> ?PR?_COMM_PUTINT16S?SUB
  +--> ?PR?_GETTEMPYCALADCVAL?CALIBRATION
  +--> ?PR?COMM_PUTNEWLINESTA?SUB

?PR?_COMM_PUTINT8U?SUB                      -----    -----      -----    -----      -----    -----
  +--> ?PR?_SUB_INT8U2STR?SUB
  +--> ?PR?_COMM_PUTSTR?COMM

?PR?_COMM_PUTINT16S?SUB                     -----    -----      -----    -----      -----    -----
  +--> ?PR?_SUB_INT16S2STR?SUB
  +--> ?PR?_COMM_PUTSTR?COMM

BL51 BANKED LINKER/LOCATER V6.22                                                      06/27/2018  11:39:01  PAGE 21


?PR?_SUB_INT16S2STR?SUB                     -----    -----      -----    -----      -----    -----
  +--> ?PR?_SUB_INT16U2STR?SUB

?PR?_SUB_SENDMCUTEMPCAL?SUB                 -----    -----      0026H    0001H      -----    -----
  +--> ?CO?SUB
  +--> ?PR?_COMM_PUTSTR?COMM
  +--> ?PR?_COMM_PUTINT8U?SUB
  +--> ?PR?_COMM_PUTCHAR?COMM
  +--> ?PR?_GETMCUTCALTEMPVAL?CALMCUT
  +--> ?PR?_COMM_PUTINT16S?SUB
  +--> ?PR?_GETMCUTCALADCVAL?CALMCUT
  +--> ?PR?_COMM_PUTINT16U?SUB
  +--> ?PR?COMM_PUTNEWLINESTA?SUB

?PR?SUB_SENDERR?SUB                         -----    -----      -----    -----      -----    -----
  +--> ?CO?SUB
  +--> ?PR?_COMM_PUTSTR?COMM
  +--> ?PR?COMM_PUTNEWLINESTA?SUB

?PR?_SEND_CDEAL?SEND                        -----    -----      0021H    0004H      -----    -----
  +--> ?CO?SEND
  +--> ?PR?_STRNCMP?STRNCMP
  +--> ?PR?SUB_SENDERR?SUB
  +--> ?PR?_SETANGXSYSZERO?ANGAPP
  +--> ?PR?_SETANGYSYSZERO?ANGAPP
  +--> ?PR?_COMM_PUTSTR?COMM
  +--> ?PR?SUB_SENDOK?SUB
  +--> ?PR?_SETANGXUSRZERO?ANGAPP
  +--> ?PR?_SETANGYUSRZERO?ANGAPP
  +--> ?PR?TEMP_CALSTA?CMDSUB
  +--> ?PR?TEMP_CALSTOP?CMDSUB
  +--> ?PR?MCUT_CALSTA?CALMCUT
  +--> ?PR?MCUT_CALSTOP?CALMCUT

?PR?SUB_SENDOK?SUB                          -----    -----      -----    -----      -----    -----
  +--> ?CO?SUB
  +--> ?PR?_COMM_PUTSTR?COMM
  +--> ?PR?COMM_PUTNEWLINESTA?SUB

?PR?_SEND_SDEAL?SEND                        -----    -----      0021H    000BH      -----    -----
  +--> ?CO?SEND
  +--> ?PR?_STRNCMP?STRNCMP
  +--> ?PR?_COMM_PUTSTR?COMM
  +--> ?PR?SUB_SENDOK?SUB
  +--> ?PR?SUB_SENDERR?SUB
  +--> ?PR?SUB_SENDANGXY?SUB
  +--> ?PR?_SUB_STR2INT8U?SUB
  +--> ?PR?_SETFILTERCNT?SENSOR
  +--> ?PR?GETXANG?SENSOR
  +--> ?PR?_SETANGXSYSZERO?ANGAPP
  +--> ?PR?GETYANG?SENSOR
  +--> ?PR?_SETANGYSYSZERO?ANGAPP
  +--> ?PR?GETANGXRELSYS?ANGAPP
  +--> ?PR?_SETANGXUSRZERO?ANGAPP
  +--> ?PR?GETANGYRELSYS?ANGAPP
  +--> ?PR?_SETANGYUSRZERO?ANGAPP
  +--> ?PR?_SUB_STR2INT32S?SUB
BL51 BANKED LINKER/LOCATER V6.22                                                      06/27/2018  11:39:01  PAGE 22


  +--> ?PR?_SETANGXINST?ANGAPP
  +--> ?PR?_SETANGYINST?ANGAPP
  +--> ?PR?_SETTEMPCALCNT?CALIBRATION
  +--> ?PR?_SETMCUTCALCNT?CALMCUT
  +--> ?PR?_SUB_STR2INT8S?SUB
  +--> ?PR?GET_MCUTEMP?SENSOR
  +--> ?PR?_MCUT_SET?CMDSUB
  +--> ?PR?_MCUT_CALSAMP?CALMCUT
  +--> ?PR?GETXFTVAL?SENSOR
  +--> ?PR?GETYFTVAL?SENSOR
  +--> ?PR?_TEMP_CALSAMP?CMDSUB
  +--> ?PR?_TEMP_CALTREFSET?CMDSUB
  +--> ?PR?_DELAY_MS?DELAY
  +--> ?PR?SUB_SYSRST?SUB

?PR?_SUB_STR2INT32S?SUB                     -----    -----      002CH    000AH      -----    -----

?PR?_SUB_STR2INT8S?SUB                      -----    -----      002CH    0003H      -----    -----
  +--> ?PR?_SUB_STR2INT8U?SUB

?PR?_MCUT_CALSAMP?CALMCUT                   -----    -----      002CH    0004H      -----    -----
  +--> ?PR?_MCUT_CALVALWR?CALMCUT
  +--> ?PR?_SUB_SENDMCUT?SUB

?PR?_MCUT_CALVALWR?CALMCUT                  -----    -----      0030H    0003H      -----    -----

?PR?_SUB_SENDMCUT?SUB                       -----    -----      0030H    0004H      -----    -----
  +--> ?CO?SUB
  +--> ?PR?_COMM_PUTSTR?COMM
  +--> ?PR?_COMM_PUTINT16S?SUB
  +--> ?PR?_COMM_PUTINT16U?SUB
  +--> ?PR?COMM_PUTNEWLINESTA?SUB

?PR?_TEMP_CALSAMP?CMDSUB                    -----    -----      002CH    0007H      -----    -----
  +--> ?PR?_TEMP_CALVALWR?CMDSUB
  +--> ?PR?_SUB_SENDADCTXY?SUB

?PR?_TEMP_CALVALWR?CMDSUB                   -----    -----      0033H    0007H      -----    -----

?PR?_SUB_SENDADCTXY?SUB                     -----    -----      0033H    0006H      -----    -----
  +--> ?CO?SUB
  +--> ?PR?_COMM_PUTSTR?COMM
  +--> ?PR?_COMM_PUTINT16U?SUB
  +--> ?PR?COMM_PUTNEWLINESTA?SUB

?PR?_TEMP_CALTREFSET?CMDSUB                 -----    -----      002CH    0005H      -----    -----
  +--> ?PR?TEMP_CALSTOP?CMDSUB

?PR?_SEND_UDEAL?SEND                        -----    -----      0021H    0004H      -----    -----
  +--> ?CO?SEND
  +--> ?PR?_STRNCMP?STRNCMP
  +--> ?PR?FLASH_CALDATAUPDATE?FLASH
  +--> ?PR?FLASH_USERDATAUPDATE?FLASH
  +--> ?PR?_COMM_PUTSTR?COMM
  +--> ?PR?SUB_SENDOK?SUB
  +--> ?PR?SUB_SENDERR?SUB

BL51 BANKED LINKER/LOCATER V6.22                                                      06/27/2018  11:39:01  PAGE 23


?PR?_SEND_WDEAL?SEND                        -----    -----      0021H    000AH      -----    -----
  +--> ?CO?SEND
  +--> ?PR?_STRNCMP?STRNCMP
  +--> ?PR?_SUB_STR2INT16S?SUB
  +--> ?PR?_SUB_STR2INT16U?SUB
  +--> ?PR?_SUB_STR2INT8U?SUB
  +--> ?PR?_TEMP_CALVALWR?CMDSUB
  +--> ?PR?SUB_SENDERR?SUB
  +--> ?PR?_STRNCPY?STRNCPY
  +--> ?PR?_COMM_PUTSTR?COMM
  +--> ?PR?SUB_SENDOK?SUB

?PR?_SUB_STR2INT16S?SUB                     -----    -----      002BH    0008H      -----    -----
  +--> ?PR?_SUB_STR2INT16U?SUB

?PR?_SUB_STR2INT16U?SUB                     -----    -----      0033H    0006H      -----    -----

?PR?_STRNCPY?STRNCPY                        -----    -----      002BH    000AH      -----    -----

?PR?_SEND_TDEAL?SEND                        -----    -----      0021H    0001H      -----    -----
  +--> ?CO?SEND
  +--> ?PR?_STRNCMP?STRNCMP
  +--> ?PR?SUB_SENDTCALTEST?SUB

?PR?SUB_SENDTCALTEST?SUB                    -----    -----      0022H    0004H      -----    -----
  +--> ?PR?GET_MCUTEMP?SENSOR
  +--> ?PR?_COMM_PUTINT16U?SUB
  +--> ?PR?_COMM_PUTCHAR?COMM
  +--> ?PR?_COMM_PUTINT16S?SUB
  +--> ?PR?COMM_PUTNEWLINESTA?SUB

?PR?COMP_ANGCNTPROC?COMPASS                 -----    -----      -----    -----      0C77H    0007H
  +--> ?PR?_COMP_GETADC?COMPASS
  +--> ?PR?_COMP_ADCCORRECTS?COMPASS
  +--> ?PR?ATAN?ATAN

?PR?_COMP_GETADC?COMPASS                    -----    -----      -----    -----      0C7EH    0002H
  +--> ?PR?COMP_SPISTA?COMPASS
  +--> ?PR?_COMP_SPIBYTESEND?COMPASS
  +--> ?PR?COMP_SPIBUSYTEST?COMPASS
  +--> ?PR?COMP_SPIBYTEGET?COMPASS
  +--> ?PR?COMP_SPIEND?COMPASS

?PR?_COMP_SPIBYTESEND?COMPASS               -----    -----      -----    -----      0C80H    0001H

?PR?COMP_SPIBYTEGET?COMPASS                 -----    -----      -----    -----      0C80H    0004H

?PR?_COMP_ADCCORRECTS?COMPASS               -----    -----      0021H    0006H      0C7EH    0008H

?PR?COMP_CALSAMPPROC?COMPASS                -----    -----      -----    -----      0C77H    0005H
  +--> ?PR?_COMP_GETADC?COMPASS
  +--> ?PR?_COMP_MIDFILTER?COMPASS

?PR?_COMP_MIDFILTER?COMPASS                 -----    -----      -----    -----      0C7CH    0006H

*** NEW ROOT ***************************************************

BL51 BANKED LINKER/LOCATER V6.22                                                      06/27/2018  11:39:01  PAGE 24


?PR?ADC_ISR?ADCDRV                          -----    -----      -----    -----      -----    -----
  +--> ?PR?_ADC_SAVEANDSWITCH?ADCDRV

?PR?_ADC_SAVEANDSWITCH?ADCDRV               -----    -----      0054H    0003H      -----    -----
  +--> ?CO?ADCDRV
  +--> ?PR?_ADCFILTER?ADCDRV

?PR?_ADCFILTER?ADCDRV                       -----    -----      0057H    0005H      -----    -----
  +--> ?PR?_VALINRANGE?FILTER
  +--> ?PR?_SLIDEWINFILTER?FILTER

?PR?_SLIDEWINFILTER?FILTER                  -----    -----      005CH    0012H      -----    -----

*** NEW ROOT ***************************************************

?PR?COMM_ISR?COMM                           -----    -----      006EH    0002H      -----    -----
  +--> ?PR?_COMM_GETTXCHAR?COMM
  +--> ?PR?COMM_SENDSTOP?COMM
  +--> ?PR?_COMM_PUTRXCHAR?COMM
  +--> ?PR?COMM_TIMERINIT?COMM

?PR?_COMM_GETTXCHAR?COMM                    -----    -----      0070H    0006H      -----    -----

?PR?_COMM_PUTRXCHAR?COMM                    -----    -----      0070H    0003H      -----    -----

*** NEW ROOT ***************************************************

?PR?TIMER2_ISR?TIMER                        -----    -----      -----    -----      -----    -----
  +--> ?PR?TIMER2_TASKINISR?TIMER

?PR?TIMER2_TASKINISR?TIMER                  -----    -----      -----    -----      -----    -----
  +--> ?PR?COMM_TIMERPROC?COMM
  +--> ?CO?SEND



SYMBOL TABLE OF MODULE:  .\obj\WTS125_M (?C_STARTUP)

  VALUE           TYPE          NAME
  ----------------------------------

  -------         MODULE        ?C_STARTUP
  C:5C38H         SEGMENT       ?C_C51STARTUP
  I:0076H         SEGMENT       ?STACK
  C:0000H         PUBLIC        ?C_STARTUP
  D:00E0H         SYMBOL        ACC
  D:00F0H         SYMBOL        B
  D:0083H         SYMBOL        DPH
  D:0082H         SYMBOL        DPL
  N:0000H         SYMBOL        IBPSTACK
  N:0100H         SYMBOL        IBPSTACKTOP
  N:0080H         SYMBOL        IDATALEN
  C:5C3BH         SYMBOL        IDATALOOP
  N:0000H         SYMBOL        PBPSTACK
  N:0100H         SYMBOL        PBPSTACKTOP
  N:0000H         SYMBOL        PDATALEN
  N:0000H         SYMBOL        PDATASTART
BL51 BANKED LINKER/LOCATER V6.22                                                      06/27/2018  11:39:01  PAGE 25


  N:0000H         SYMBOL        PPAGE
  N:0000H         SYMBOL        PPAGEENABLE
  D:00A0H         SYMBOL        PPAGE_SFR
  D:0081H         SYMBOL        SP
  C:5C38H         SYMBOL        STARTUP1
  N:0000H         SYMBOL        XBPSTACK
  N:0000H         SYMBOL        XBPSTACKTOP
  N:0000H         SYMBOL        XDATALEN
  N:0000H         SYMBOL        XDATASTART
  C:0000H         LINE#         126
  C:5C38H         LINE#         133
  C:5C3AH         LINE#         134
  C:5C3BH         LINE#         135
  C:5C3CH         LINE#         136
  C:5C3EH         LINE#         185
  C:5C41H         LINE#         196
  -------         ENDMOD        ?C_STARTUP

  -------         MODULE        ADCDRV
  C:0000H         SYMBOL        _ICE_DUMMY_
  C:7A22H         PUBLIC        Adc_Init
  D:0090H         PUBLIC        P1
  D:00A0H         PUBLIC        P2
  D:00BCH         PUBLIC        ADC0CF
  D:00E6H         PUBLIC        EIE1
  C:6062H         SYMBOL        _Adc_SaveAndSwitch
  C:7B36H         PUBLIC        Adc_GetXVal
  C:7B3FH         PUBLIC        Adc_GetYVal
  D:00E8H         PUBLIC        ADC0CN
  D:00A7H         PUBLIC        SFRPAGE
  C:7C3EH         SYMBOL        Adc_VrefInit
  C:5814H         PUBLIC        Adc_Isr
  X:085CH         PUBLIC        x_axis_adc
  X:08E4H         PUBLIC        y_axis_adc
  D:00BBH         PUBLIC        ADC0MX
  D:00D1H         PUBLIC        REF0CN
  C:6B16H         SYMBOL        AdcEntityInit
  B:00E8H.5       PUBLIC        AD0INT
  C:7B48H         PUBLIC        Adc_GetTemp
  C:7310H         SYMBOL        Adc_SetInit
  I:0019H         PUBLIC        AdcSwitchId
  C:7C42H         SYMBOL        Adc_IsrInit
  C:0026H         PUBLIC        Adc_Enable
  I:001AH         PUBLIC        AdcEndTag
  D:00BEH         PUBLIC        ADC0H
  X:096CH         PUBLIC        temp_adc
  D:00BDH         PUBLIC        ADC0L
  I:001BH         PUBLIC        AdcEndId
  C:7608H         SYMBOL        PinIdTab
  C:5D50H         SYMBOL        _AdcFilter
  D:00BDH         PUBLIC        ADC0
  C:7615H         SYMBOL        PinMuxTab
  -------         PROC          ADC_INIT
  C:7A22H         LINE#         46
  C:7A22H         LINE#         47
  C:7A22H         LINE#         48
  C:7A25H         LINE#         49
BL51 BANKED LINKER/LOCATER V6.22                                                      06/27/2018  11:39:01  PAGE 26


  C:7A28H         LINE#         50
  C:7A2BH         LINE#         51
  -------         ENDPROC       ADC_INIT
  -------         PROC          ADC_ENABLE
  C:0026H         LINE#         54
  C:0026H         LINE#         55
  C:0026H         LINE#         56
  C:0029H         LINE#         57
  -------         ENDPROC       ADC_ENABLE
  -------         PROC          ADC_GETXVAL
  C:7B36H         LINE#         65
  C:7B36H         LINE#         66
  C:7B36H         LINE#         67
  C:7B3EH         LINE#         68
  -------         ENDPROC       ADC_GETXVAL
  -------         PROC          ADC_GETYVAL
  C:7B3FH         LINE#         76
  C:7B3FH         LINE#         77
  C:7B3FH         LINE#         78
  C:7B47H         LINE#         79
  -------         ENDPROC       ADC_GETYVAL
  -------         PROC          ADC_GETTEMP
  C:7B48H         LINE#         87
  C:7B48H         LINE#         88
  C:7B48H         LINE#         89
  C:7B50H         LINE#         90
  -------         ENDPROC       ADC_GETTEMP
  -------         PROC          ADC_SETINIT
  -------         DO            
  D:0007H         SYMBOL        SfrPage_
  -------         ENDDO         
  C:7310H         LINE#         111
  C:7310H         LINE#         112
  C:7312H         LINE#         115
  C:7315H         LINE#         116
  C:7318H         LINE#         117
  C:731BH         LINE#         118
  C:731EH         LINE#         119
  C:7321H         LINE#         120
  C:7324H         LINE#         121
  C:7327H         LINE#         122
  C:732AH         LINE#         123
  C:732DH         LINE#         124
  C:7330H         LINE#         125
  C:7333H         LINE#         126
  C:7335H         LINE#         127
  C:7338H         LINE#         128
  C:733BH         LINE#         129
  C:733DH         LINE#         130
  -------         ENDPROC       ADC_SETINIT
  -------         PROC          ADC_VREFINIT
  C:7C3EH         LINE#         132
  C:7C3EH         LINE#         133
  C:7C3EH         LINE#         134
  C:7C41H         LINE#         135
  -------         ENDPROC       ADC_VREFINIT
  -------         PROC          ADC_ISRINIT
BL51 BANKED LINKER/LOCATER V6.22                                                      06/27/2018  11:39:01  PAGE 27


  C:7C42H         LINE#         137
  C:7C42H         LINE#         138
  C:7C42H         LINE#         139
  C:7C45H         LINE#         140
  -------         ENDPROC       ADC_ISRINIT
  -------         PROC          _ADCFILTER
  D:0057H         SYMBOL        p_adc
  D:005AH         SYMBOL        val
  C:5D50H         LINE#         149
  C:5D5AH         LINE#         150
  C:5D5AH         LINE#         151
  C:5D6FH         LINE#         152
  C:5D6FH         LINE#         154
  C:5DBEH         LINE#         155
  C:5DBEH         LINE#         157
  C:5DBEH         LINE#         158
  C:5DCDH         LINE#         159
  C:5DD4H         LINE#         160
  C:5DD4H         LINE#         161
  -------         ENDPROC       _ADCFILTER
  -------         PROC          ADCENTITYINIT
  C:6B16H         LINE#         219
  C:6B16H         LINE#         220
  C:6B16H         LINE#         222
  C:6B1BH         LINE#         223
  C:6B1DH         LINE#         224
  C:6B1FH         LINE#         225
  C:6B25H         LINE#         227
  C:6B30H         LINE#         229
  C:6B34H         LINE#         230
  C:6B37H         LINE#         231
  C:6B39H         LINE#         232
  C:6B3FH         LINE#         234
  C:6B4AH         LINE#         236
  C:6B4EH         LINE#         237
  C:6B51H         LINE#         238
  C:6B53H         LINE#         239
  C:6B59H         LINE#         241
  C:6B62H         LINE#         249
  -------         ENDPROC       ADCENTITYINIT
  -------         PROC          _ADC_SAVEANDSWITCH
  D:0004H         SYMBOL        val
  -------         DO            
  D:0054H         SYMBOL        adc_ent
  -------         ENDDO         
  C:6062H         LINE#         265
  C:6066H         LINE#         266
  C:6066H         LINE#         268
  C:606FH         LINE#         269
  C:607EH         LINE#         270
  C:6086H         LINE#         272
  C:608EH         LINE#         273
  C:608EH         LINE#         274
  C:60A2H         LINE#         275
  C:60A2H         LINE#         276
  C:60AEH         LINE#         277
  C:60B0H         LINE#         278
BL51 BANKED LINKER/LOCATER V6.22                                                      06/27/2018  11:39:01  PAGE 28


  C:60B8H         LINE#         280
  C:60C1H         LINE#         282
  C:60CBH         LINE#         283
  C:60CEH         LINE#         285
  C:60D4H         LINE#         286
  C:60DDH         LINE#         287
  C:60E0H         LINE#         288
  -------         ENDPROC       _ADC_SAVEANDSWITCH
  -------         PROC          ADC_ISR
  -------         DO            
  X:0856H         SYMBOL        sum
  X:085AH         SYMBOL        cnt
  -------         ENDDO         
  C:5814H         LINE#         296
  C:5831H         LINE#         301
  C:5833H         LINE#         302
  C:585AH         LINE#         303
  C:586DH         LINE#         304
  C:586DH         LINE#         305
  C:5887H         LINE#         306
  C:5891H         LINE#         307
  C:5898H         LINE#         308
  C:589AH         LINE#         310
  C:589DH         LINE#         311
  -------         ENDPROC       ADC_ISR
  -------         ENDMOD        ADCDRV

  -------         MODULE        ANGAPP
  C:0000H         SYMBOL        _ICE_DUMMY_
  C:7BF6H         PUBLIC        _SetAngYUsrZero
  C:6C95H         PUBLIC        GetXAngAllSetVal
  D:0090H         PUBLIC        P1
  C:6CDBH         PUBLIC        GetYAngAllSetVal
  D:00A0H         PUBLIC        P2
  C:7BE4H         PUBLIC        _SetAngXSysZero
  C:7BEAH         PUBLIC        _SetAngYSysZero
  C:714DH         PUBLIC        GetAngP
  X:0BEFH         SYMBOL        angp
  C:615CH         PUBLIC        AngInit
  X:0BF3H         SYMBOL        angx_usrzero
  X:0BF7H         SYMBOL        angy_usrzero
  C:7900H         PUBLIC        GetAngXInst
  C:790FH         PUBLIC        GetAngYInst
  X:0BFBH         SYMBOL        angx_syszero
  X:0BFFH         SYMBOL        angy_syszero
  C:793CH         PUBLIC        GetAngPSet
  C:7BFCH         PUBLIC        _SetAngXInst
  C:7C02H         PUBLIC        _SetAngYInst
  C:791EH         PUBLIC        GetAngXSet
  C:792DH         PUBLIC        GetAngYSet
  X:0C03H         SYMBOL        angx_inst
  X:0C07H         SYMBOL        angy_inst
  X:0C0BH         SYMBOL        angp_set
  C:51A7H         SYMBOL        _PAngCalc
  X:0C0FH         SYMBOL        angx_set
  X:0C13H         SYMBOL        angy_set
  C:734BH         PUBLIC        _SetAngZero
BL51 BANKED LINKER/LOCATER V6.22                                                      06/27/2018  11:39:01  PAGE 29


  C:794BH         PUBLIC        GetAngXZeroUsr
  C:78E2H         PUBLIC        GetAngXUsrZero
  C:795AH         PUBLIC        GetAngYZeroUsr
  C:78F1H         PUBLIC        GetAngYUsrZero
  C:739FH         PUBLIC        _SetAngZeroAdd
  X:0C17H         SYMBOL        BufZerox_usr
  C:78C4H         PUBLIC        GetAngXSysZero
  X:0C1BH         SYMBOL        BufZeroy_usr
  C:78D3H         PUBLIC        GetAngYSysZero
  C:7969H         PUBLIC        GetAngXRelSys
  C:7978H         PUBLIC        GetAngYRelSys
  X:0C1FH         SYMBOL        BufZerox_sys
  X:0C23H         SYMBOL        BufZeroy_sys
  C:7BF0H         PUBLIC        _SetAngXUsrZero
  -------         PROC          ANGINIT
  C:615CH         LINE#         41
  C:615CH         LINE#         42
  C:615CH         LINE#         43
  C:615FH         LINE#         45
  C:6169H         LINE#         47
  C:6174H         LINE#         48
  C:617FH         LINE#         49
  C:618AH         LINE#         50
  C:6195H         LINE#         51
  C:61A0H         LINE#         52
  C:61ABH         LINE#         57
  C:61B5H         LINE#         58
  C:61BFH         LINE#         59
  C:61C9H         LINE#         60
  C:61D3H         LINE#         62
  -------         ENDPROC       ANGINIT
  -------         PROC          _PANGCALC
  D:0004H         SYMBOL        angx
  D:003EH         SYMBOL        angy
  -------         DO            
  D:0042H         SYMBOL        x
  D:0004H         SYMBOL        y
  D:0046H         SYMBOL        s
  -------         ENDDO         
  C:51A7H         LINE#         70
  C:51A7H         LINE#         71
  C:51A7H         LINE#         74
  C:51B3H         LINE#         75
  C:51D1H         LINE#         76
  C:51DCH         LINE#         77
  C:51EFH         LINE#         79
  C:51FBH         LINE#         80
  C:5211H         LINE#         81
  C:5214H         LINE#         82
  C:521FH         LINE#         84
  C:5235H         LINE#         85
  C:5249H         LINE#         86
  C:5249H         LINE#         87
  C:5252H         LINE#         88
  C:5252H         LINE#         89
  C:527BH         LINE#         90
  C:527EH         LINE#         91
BL51 BANKED LINKER/LOCATER V6.22                                                      06/27/2018  11:39:01  PAGE 30


  -------         ENDPROC       _PANGCALC
  -------         PROC          GETANGP
  C:714DH         LINE#         99
  C:714DH         LINE#         100
  C:714DH         LINE#         102
  C:7174H         LINE#         103
  C:7182H         LINE#         104
  -------         ENDPROC       GETANGP
  -------         PROC          GETANGXSYSZERO
  C:78C4H         LINE#         106
  C:78C4H         LINE#         107
  C:78C4H         LINE#         108
  C:78D2H         LINE#         109
  -------         ENDPROC       GETANGXSYSZERO
  -------         PROC          GETANGYSYSZERO
  C:78D3H         LINE#         110
  C:78D3H         LINE#         111
  C:78D3H         LINE#         112
  C:78E1H         LINE#         113
  -------         ENDPROC       GETANGYSYSZERO
  -------         PROC          GETANGXUSRZERO
  C:78E2H         LINE#         114
  C:78E2H         LINE#         115
  C:78E2H         LINE#         116
  C:78F0H         LINE#         117
  -------         ENDPROC       GETANGXUSRZERO
  -------         PROC          GETANGYUSRZERO
  C:78F1H         LINE#         118
  C:78F1H         LINE#         119
  C:78F1H         LINE#         120
  C:78FFH         LINE#         121
  -------         ENDPROC       GETANGYUSRZERO
  -------         PROC          GETANGXINST
  C:7900H         LINE#         123
  C:7900H         LINE#         124
  C:7900H         LINE#         125
  C:790EH         LINE#         126
  -------         ENDPROC       GETANGXINST
  -------         PROC          GETANGYINST
  C:790FH         LINE#         127
  C:790FH         LINE#         128
  C:790FH         LINE#         129
  C:791DH         LINE#         130
  -------         ENDPROC       GETANGYINST
  -------         PROC          GETANGXSET
  C:791EH         LINE#         132
  C:791EH         LINE#         133
  C:791EH         LINE#         134
  C:792CH         LINE#         135
  -------         ENDPROC       GETANGXSET
  -------         PROC          GETANGYSET
  C:792DH         LINE#         136
  C:792DH         LINE#         137
  C:792DH         LINE#         138
  C:793BH         LINE#         139
  -------         ENDPROC       GETANGYSET
  -------         PROC          GETANGPSET
BL51 BANKED LINKER/LOCATER V6.22                                                      06/27/2018  11:39:01  PAGE 31


  C:793CH         LINE#         140
  C:793CH         LINE#         141
  C:793CH         LINE#         142
  C:794AH         LINE#         143
  -------         ENDPROC       GETANGPSET
  -------         PROC          GETANGXZEROUSR
  C:794BH         LINE#         145
  C:794BH         LINE#         146
  C:794BH         LINE#         147
  C:7959H         LINE#         148
  -------         ENDPROC       GETANGXZEROUSR
  -------         PROC          GETANGYZEROUSR
  C:795AH         LINE#         149
  C:795AH         LINE#         150
  C:795AH         LINE#         151
  C:7968H         LINE#         152
  -------         ENDPROC       GETANGYZEROUSR
  -------         PROC          GETANGXRELSYS
  C:7969H         LINE#         154
  C:7969H         LINE#         155
  C:7969H         LINE#         156
  C:7977H         LINE#         157
  -------         ENDPROC       GETANGXRELSYS
  -------         PROC          GETANGYRELSYS
  C:7978H         LINE#         158
  C:7978H         LINE#         159
  C:7978H         LINE#         160
  C:7986H         LINE#         161
  -------         ENDPROC       GETANGYRELSYS
  -------         PROC          _SETANGXSYSZERO
  D:0004H         SYMBOL        zore
  C:7BE4H         LINE#         170
  C:7BE4H         LINE#         171
  C:7BE4H         LINE#         172
  -------         ENDPROC       _SETANGXSYSZERO
  -------         PROC          _SETANGYSYSZERO
  D:0004H         SYMBOL        zore
  C:7BEAH         LINE#         174
  C:7BEAH         LINE#         175
  C:7BEAH         LINE#         176
  -------         ENDPROC       _SETANGYSYSZERO
  -------         PROC          _SETANGXUSRZERO
  D:0004H         SYMBOL        zore
  C:7BF0H         LINE#         179
  C:7BF0H         LINE#         180
  C:7BF0H         LINE#         181
  -------         ENDPROC       _SETANGXUSRZERO
  -------         PROC          _SETANGYUSRZERO
  D:0004H         SYMBOL        zore
  C:7BF6H         LINE#         183
  C:7BF6H         LINE#         184
  C:7BF6H         LINE#         185
  -------         ENDPROC       _SETANGYUSRZERO
  -------         PROC          _SETANGXINST
  D:0004H         SYMBOL        ang_inst
  C:7BFCH         LINE#         188
  C:7BFCH         LINE#         189
BL51 BANKED LINKER/LOCATER V6.22                                                      06/27/2018  11:39:01  PAGE 32


  C:7BFCH         LINE#         190
  -------         ENDPROC       _SETANGXINST
  -------         PROC          _SETANGYINST
  D:0004H         SYMBOL        ang_inst
  C:7C02H         LINE#         192
  C:7C02H         LINE#         193
  C:7C02H         LINE#         194
  -------         ENDPROC       _SETANGYINST
  C:7340H         SYMBOL        L?0029
  -------         PROC          L?0028
  -------         ENDPROC       L?0028
  C:7340H         SYMBOL        L?0029
  -------         PROC          _SETANGZERO
  D:0001H         SYMBOL        angval
  D:003EH         SYMBOL        setval
  C:734BH         LINE#         206
  C:7353H         LINE#         207
  C:7353H         LINE#         208
  -------         ENDPROC       _SETANGZERO
  -------         PROC          L?0030
  -------         ENDPROC       L?0030
  -------         PROC          _SETANGZEROADD
  D:0001H         SYMBOL        angval
  D:003EH         SYMBOL        setval
  C:739FH         LINE#         211
  C:73A7H         LINE#         212
  C:73A7H         LINE#         213
  -------         ENDPROC       _SETANGZEROADD
  -------         PROC          GETXANGALLSETVAL
  -------         DO            
  D:003AH         SYMBOL        tmp
  -------         ENDDO         
  C:6C95H         LINE#         222
  C:6C95H         LINE#         223
  C:6C95H         LINE#         225
  C:6CA0H         LINE#         226
  C:6CAAH         LINE#         227
  C:6CB8H         LINE#         228
  C:6CBEH         LINE#         229
  C:6CCCH         LINE#         230
  C:6CD2H         LINE#         231
  C:6CDAH         LINE#         233
  -------         ENDPROC       GETXANGALLSETVAL
  -------         PROC          GETYANGALLSETVAL
  -------         DO            
  D:003AH         SYMBOL        tmp
  -------         ENDDO         
  C:6CDBH         LINE#         241
  C:6CDBH         LINE#         242
  C:6CDBH         LINE#         244
  C:6CE6H         LINE#         245
  C:6CF0H         LINE#         246
  C:6CFEH         LINE#         247
  C:6D04H         LINE#         248
  C:6D12H         LINE#         249
  C:6D18H         LINE#         250
  C:6D20H         LINE#         251
BL51 BANKED LINKER/LOCATER V6.22                                                      06/27/2018  11:39:01  PAGE 33


  -------         ENDPROC       GETYANGALLSETVAL
  -------         ENDMOD        ANGAPP

  -------         MODULE        CALIBRATION
  C:0000H         SYMBOL        _ICE_DUMMY_
  C:79C2H         SYMBOL        _Ang_WrAngVal
  C:7BC5H         PUBLIC        _SetAngCalCnt
  X:0000H         PUBLIC        SetMcuTincelsius
  C:7BBDH         PUBLIC        _SetTempCalCnt
  C:769BH         SYMBOL        _Temp_WrTempVal
  D:0090H         PUBLIC        P1
  X:0001H         PUBLIC        Ang_Xcal
  D:00A0H         PUBLIC        P2
  X:0167H         PUBLIC        Ang_Ycal
  X:02CDH         PUBLIC        Temp_Xcal
  X:03AAH         PUBLIC        Temp_Ycal
  C:7B63H         PUBLIC        AngXCalcPrm
  C:7B6CH         PUBLIC        AngYCalcPrm
  C:7B51H         PUBLIC        TempXCalcPrm
  C:7B5AH         PUBLIC        TempYCalcPrm
  C:3820H         SYMBOL        _Ang_CalcPrm
  C:4322H         SYMBOL        _Temp_CalcPrm
  C:457AH         PUBLIC        AngCalDataInit
  C:62BBH         PUBLIC        TempCalDataInit
  C:7C0EH         PUBLIC        GetAngXCalCnt
  C:7C14H         PUBLIC        GetAngYCalCnt
  C:7C08H         PUBLIC        GetTempXCalCnt
  C:7A6AH         PUBLIC        _GetAngXCalAdcVal
  C:7A82H         PUBLIC        _GetAngYCalAdcVal
  C:7A5EH         PUBLIC        _GetTempXCalAdcVal
  X:0487H         PUBLIC        McuTAdcValWhileSet
  C:7A76H         PUBLIC        _GetTempYCalAdcVal
  X:0489H         SYMBOL        temp_buf
  C:7AD5H         PUBLIC        _SetAngXCalCnt
  C:7AEBH         PUBLIC        _SetAngYCalCnt
  C:7ACAH         PUBLIC        _SetTempXCalCnt
  C:7AE0H         PUBLIC        _SetTempYCalCnt
  C:785FH         SYMBOL        _Ang_RdAdcVal
  C:7C4AH         SYMBOL        _Ang_SetCalCnt
  C:783DH         SYMBOL        _Temp_RdAdcVal
  C:7C46H         SYMBOL        _Temp_SetCalCnt
  C:7778H         PUBLIC        _SetAngXCalAdcVal
  C:77A2H         PUBLIC        _SetAngYCalAdcVal
  C:7763H         PUBLIC        _SetTempXCalAdcVal
  C:778DH         PUBLIC        _SetTempYCalAdcVal
  C:7A3AH         PUBLIC        _GetAngXCalAngVal
  C:7A52H         PUBLIC        _GetAngYCalAngVal
  C:7A2EH         PUBLIC        _GetTempXCalTempVal
  C:7A46H         PUBLIC        _GetTempYCalTempVal
  C:79B4H         SYMBOL        _Ang_RdAngVal
  C:7684H         SYMBOL        _Temp_RdTempVal
  C:7A8EH         PUBLIC        _SetAngXCalAngVal
  C:7A9AH         PUBLIC        _SetAngYCalAngVal
  C:7739H         PUBLIC        _SetTempXCalTempVal
  C:7870H         SYMBOL        _Ang_WrAdcVal
  C:774EH         PUBLIC        _SetTempYCalTempVal
  C:784EH         SYMBOL        _Temp_WrAdcVal
BL51 BANKED LINKER/LOCATER V6.22                                                      06/27/2018  11:39:01  PAGE 34


  C:47ADH         PUBLIC        CalibInit
  -------         PROC          _TEMP_SETCALCNT
  D:0001H         SYMBOL        p_cal
  D:0005H         SYMBOL        num
  C:7C46H         LINE#         32
  C:7C46H         LINE#         33
  C:7C46H         LINE#         34
  -------         ENDPROC       _TEMP_SETCALCNT
  -------         PROC          _TEMP_RDTEMPVAL
  D:0001H         SYMBOL        p_cal
  D:0005H         SYMBOL        posid
  C:7684H         LINE#         44
  C:7684H         LINE#         45
  C:7684H         LINE#         46
  C:769AH         LINE#         47
  -------         ENDPROC       _TEMP_RDTEMPVAL
  -------         PROC          _TEMP_RDADCVAL
  D:0001H         SYMBOL        p_cal
  D:0005H         SYMBOL        posid
  C:783DH         LINE#         56
  C:783DH         LINE#         57
  C:783DH         LINE#         58
  C:784DH         LINE#         59
  -------         ENDPROC       _TEMP_RDADCVAL
  -------         PROC          _TEMP_WRTEMPVAL
  D:0001H         SYMBOL        p_cal
  D:0004H         SYMBOL        val
  D:002EH         SYMBOL        posid
  C:769BH         LINE#         68
  C:769BH         LINE#         69
  C:769BH         LINE#         70
  -------         ENDPROC       _TEMP_WRTEMPVAL
  -------         PROC          _TEMP_WRADCVAL
  D:0001H         SYMBOL        p_cal
  D:0004H         SYMBOL        val
  D:002EH         SYMBOL        posid
  C:784EH         LINE#         80
  C:784EH         LINE#         81
  C:784EH         LINE#         82
  -------         ENDPROC       _TEMP_WRADCVAL
  -------         PROC          _TEMP_CALCPRM
  D:0031H         SYMBOL        p_cal
  -------         DO            
  D:0034H         SYMBOL        i
  -------         ENDDO         
  C:4322H         LINE#         92
  C:4328H         LINE#         93
  C:4328H         LINE#         95
  C:433FH         LINE#         96
  C:433FH         LINE#         97
  C:43D2H         LINE#         98
  C:444CH         LINE#         99
  C:4451H         LINE#         100
  -------         ENDPROC       _TEMP_CALCPRM
  -------         PROC          _ANG_SETCALCNT
  D:0001H         SYMBOL        p_cal
  D:0005H         SYMBOL        num
BL51 BANKED LINKER/LOCATER V6.22                                                      06/27/2018  11:39:01  PAGE 35


  C:7C4AH         LINE#         109
  C:7C4AH         LINE#         110
  C:7C4AH         LINE#         111
  -------         ENDPROC       _ANG_SETCALCNT
  -------         PROC          _ANG_RDANGVAL
  D:0001H         SYMBOL        p_cal
  D:0005H         SYMBOL        posid
  C:79B4H         LINE#         120
  C:79B4H         LINE#         121
  C:79B4H         LINE#         122
  C:79C1H         LINE#         123
  -------         ENDPROC       _ANG_RDANGVAL
  -------         PROC          _ANG_RDADCVAL
  D:0001H         SYMBOL        p_cal
  D:0005H         SYMBOL        posid
  C:785FH         LINE#         132
  C:785FH         LINE#         133
  C:785FH         LINE#         134
  C:786FH         LINE#         135
  -------         ENDPROC       _ANG_RDADCVAL
  -------         PROC          _ANG_WRANGVAL
  D:0001H         SYMBOL        p_cal
  D:0004H         SYMBOL        val
  D:0045H         SYMBOL        posid
  C:79C2H         LINE#         143
  C:79C2H         LINE#         144
  C:79C2H         LINE#         145
  -------         ENDPROC       _ANG_WRANGVAL
  -------         PROC          _ANG_WRADCVAL
  D:0001H         SYMBOL        p_cal
  D:0004H         SYMBOL        val
  D:003EH         SYMBOL        posid
  C:7870H         LINE#         155
  C:7870H         LINE#         156
  C:7870H         LINE#         157
  -------         ENDPROC       _ANG_WRADCVAL
  -------         PROC          _ANG_CALCPRM
  D:0023H         SYMBOL        p_cal
  -------         DO            
  D:0026H         SYMBOL        ang0
  D:002AH         SYMBOL        ang1
  D:002EH         SYMBOL        i
  -------         ENDDO         
  C:3820H         LINE#         167
  C:3826H         LINE#         168
  C:3826H         LINE#         173
  C:383DH         LINE#         174
  C:383DH         LINE#         175
  C:386DH         LINE#         176
  C:38A7H         LINE#         177
  C:3932H         LINE#         178
  C:399EH         LINE#         179
  C:39A3H         LINE#         180
  -------         ENDPROC       _ANG_CALCPRM
  -------         PROC          GETTEMPXCALCNT
  C:7C08H         LINE#         190
  C:7C08H         LINE#         191
BL51 BANKED LINKER/LOCATER V6.22                                                      06/27/2018  11:39:01  PAGE 36


  C:7C08H         LINE#         192
  C:7C0DH         LINE#         193
  -------         ENDPROC       GETTEMPXCALCNT
  -------         PROC          GETANGXCALCNT
  C:7C0EH         LINE#         197
  C:7C0EH         LINE#         198
  C:7C0EH         LINE#         199
  C:7C13H         LINE#         200
  -------         ENDPROC       GETANGXCALCNT
  -------         PROC          GETANGYCALCNT
  C:7C14H         LINE#         207
  C:7C14H         LINE#         208
  C:7C14H         LINE#         209
  C:7C19H         LINE#         210
  -------         ENDPROC       GETANGYCALCNT
  -------         PROC          _SETTEMPXCALCNT
  D:0005H         SYMBOL        cnt
  C:7ACAH         LINE#         220
  C:7ACCH         LINE#         221
  C:7ACCH         LINE#         222
  -------         ENDPROC       _SETTEMPXCALCNT
  -------         PROC          _SETANGXCALCNT
  D:0005H         SYMBOL        cnt
  C:7AD5H         LINE#         225
  C:7AD7H         LINE#         226
  C:7AD7H         LINE#         227
  -------         ENDPROC       _SETANGXCALCNT
  -------         PROC          _SETTEMPYCALCNT
  D:0005H         SYMBOL        cnt
  C:7AE0H         LINE#         230
  C:7AE2H         LINE#         231
  C:7AE2H         LINE#         232
  -------         ENDPROC       _SETTEMPYCALCNT
  -------         PROC          _SETANGYCALCNT
  D:0005H         SYMBOL        cnt
  C:7AEBH         LINE#         235
  C:7AEDH         LINE#         236
  C:7AEDH         LINE#         237
  -------         ENDPROC       _SETANGYCALCNT
  -------         PROC          _SETTEMPCALCNT
  D:0006H         SYMBOL        cnt
  C:7BBDH         LINE#         240
  C:7BBFH         LINE#         241
  C:7BBFH         LINE#         242
  C:7BC2H         LINE#         243
  -------         ENDPROC       _SETTEMPCALCNT
  -------         PROC          _SETANGCALCNT
  D:0006H         SYMBOL        cnt
  C:7BC5H         LINE#         246
  C:7BC7H         LINE#         247
  C:7BC7H         LINE#         248
  C:7BCAH         LINE#         249
  -------         ENDPROC       _SETANGCALCNT
  -------         PROC          _GETTEMPXCALTEMPVAL
  D:0005H         SYMBOL        pos
  C:7A2EH         LINE#         261
  C:7A30H         LINE#         262
BL51 BANKED LINKER/LOCATER V6.22                                                      06/27/2018  11:39:01  PAGE 37


  C:7A30H         LINE#         263
  C:7A39H         LINE#         264
  -------         ENDPROC       _GETTEMPXCALTEMPVAL
  -------         PROC          _GETANGXCALANGVAL
  D:0005H         SYMBOL        pos
  C:7A3AH         LINE#         271
  C:7A3CH         LINE#         272
  C:7A3CH         LINE#         273
  C:7A45H         LINE#         274
  -------         ENDPROC       _GETANGXCALANGVAL
  -------         PROC          _GETTEMPYCALTEMPVAL
  D:0005H         SYMBOL        pos
  C:7A46H         LINE#         282
  C:7A48H         LINE#         283
  C:7A48H         LINE#         284
  C:7A51H         LINE#         285
  -------         ENDPROC       _GETTEMPYCALTEMPVAL
  -------         PROC          _GETANGYCALANGVAL
  D:0005H         SYMBOL        pos
  C:7A52H         LINE#         292
  C:7A54H         LINE#         293
  C:7A54H         LINE#         294
  C:7A5DH         LINE#         295
  -------         ENDPROC       _GETANGYCALANGVAL
  -------         PROC          _GETTEMPXCALADCVAL
  D:0005H         SYMBOL        pos
  C:7A5EH         LINE#         303
  C:7A60H         LINE#         304
  C:7A60H         LINE#         305
  C:7A69H         LINE#         306
  -------         ENDPROC       _GETTEMPXCALADCVAL
  -------         PROC          _GETANGXCALADCVAL
  D:0005H         SYMBOL        pos
  C:7A6AH         LINE#         313
  C:7A6CH         LINE#         314
  C:7A6CH         LINE#         315
  C:7A75H         LINE#         316
  -------         ENDPROC       _GETANGXCALADCVAL
  -------         PROC          _GETTEMPYCALADCVAL
  D:0005H         SYMBOL        pos
  C:7A76H         LINE#         323
  C:7A78H         LINE#         324
  C:7A78H         LINE#         325
  C:7A81H         LINE#         326
  -------         ENDPROC       _GETTEMPYCALADCVAL
  -------         PROC          _GETANGYCALADCVAL
  D:0005H         SYMBOL        pos
  C:7A82H         LINE#         333
  C:7A84H         LINE#         334
  C:7A84H         LINE#         335
  C:7A8DH         LINE#         336
  -------         ENDPROC       _GETANGYCALADCVAL
  -------         PROC          _SETTEMPXCALTEMPVAL
  D:0082H         SYMBOL        val
  D:0007H         SYMBOL        pos
  C:7739H         LINE#         348
  C:773FH         LINE#         349
BL51 BANKED LINKER/LOCATER V6.22                                                      06/27/2018  11:39:01  PAGE 38


  C:773FH         LINE#         350
  -------         ENDPROC       _SETTEMPXCALTEMPVAL
  -------         PROC          _SETANGXCALANGVAL
  D:0004H         SYMBOL        val
  D:003DH         SYMBOL        pos
  C:7A8EH         LINE#         358
  C:7A8EH         LINE#         359
  C:7A8EH         LINE#         360
  -------         ENDPROC       _SETANGXCALANGVAL
  -------         PROC          _SETTEMPYCALTEMPVAL
  D:0082H         SYMBOL        val
  D:0007H         SYMBOL        pos
  C:774EH         LINE#         368
  C:7754H         LINE#         369
  C:7754H         LINE#         370
  -------         ENDPROC       _SETTEMPYCALTEMPVAL
  -------         PROC          _SETANGYCALANGVAL
  D:0004H         SYMBOL        val
  D:003DH         SYMBOL        pos
  C:7A9AH         LINE#         378
  C:7A9AH         LINE#         379
  C:7A9AH         LINE#         380
  -------         ENDPROC       _SETANGYCALANGVAL
  -------         PROC          _SETTEMPXCALADCVAL
  D:0082H         SYMBOL        val
  D:0007H         SYMBOL        pos
  C:7763H         LINE#         389
  C:7769H         LINE#         390
  C:7769H         LINE#         391
  -------         ENDPROC       _SETTEMPXCALADCVAL
  -------         PROC          _SETANGXCALADCVAL
  D:0082H         SYMBOL        val
  D:0007H         SYMBOL        pos
  C:7778H         LINE#         400
  C:777EH         LINE#         401
  C:777EH         LINE#         402
  -------         ENDPROC       _SETANGXCALADCVAL
  -------         PROC          _SETTEMPYCALADCVAL
  D:0082H         SYMBOL        val
  D:0007H         SYMBOL        pos
  C:778DH         LINE#         410
  C:7793H         LINE#         411
  C:7793H         LINE#         412
  -------         ENDPROC       _SETTEMPYCALADCVAL
  -------         PROC          _SETANGYCALADCVAL
  D:0082H         SYMBOL        val
  D:0007H         SYMBOL        pos
  C:77A2H         LINE#         420
  C:77A8H         LINE#         421
  C:77A8H         LINE#         422
  -------         ENDPROC       _SETANGYCALADCVAL
  -------         PROC          TEMPXCALCPRM
  C:7B51H         LINE#         429
  C:7B51H         LINE#         430
  C:7B51H         LINE#         431
  -------         ENDPROC       TEMPXCALCPRM
  -------         PROC          TEMPYCALCPRM
BL51 BANKED LINKER/LOCATER V6.22                                                      06/27/2018  11:39:01  PAGE 39


  C:7B5AH         LINE#         436
  C:7B5AH         LINE#         437
  C:7B5AH         LINE#         438
  -------         ENDPROC       TEMPYCALCPRM
  -------         PROC          ANGXCALCPRM
  C:7B63H         LINE#         445
  C:7B63H         LINE#         446
  C:7B63H         LINE#         447
  -------         ENDPROC       ANGXCALCPRM
  -------         PROC          ANGYCALCPRM
  C:7B6CH         LINE#         453
  C:7B6CH         LINE#         454
  C:7B6CH         LINE#         455
  -------         ENDPROC       ANGYCALCPRM
  -------         PROC          TEMPCALDATAINIT
  -------         DO            
  D:0022H         SYMBOL        i
  -------         ENDDO         
  C:62BBH         LINE#         472
  C:62BBH         LINE#         473
  C:62BBH         LINE#         475
  C:62C0H         LINE#         476
  C:62C3H         LINE#         477
  C:62C3H         LINE#         478
  C:62F2H         LINE#         479
  C:6303H         LINE#         480
  C:6314H         LINE#         481
  C:631BH         LINE#         482
  C:6321H         LINE#         483
  C:632BH         LINE#         484
  -------         ENDPROC       TEMPCALDATAINIT
  -------         PROC          ANGCALDATAINIT
  -------         DO            
  D:0003H         SYMBOL        i
  -------         ENDDO         
  C:457AH         LINE#         493
  C:457AH         LINE#         494
  C:457AH         LINE#         496
  C:457FH         LINE#         497
  C:4581H         LINE#         498
  C:4581H         LINE#         499
  C:45A5H         LINE#         500
  C:45CCH         LINE#         502
  C:45ECH         LINE#         503
  C:4613H         LINE#         504
  C:461CH         LINE#         506
  C:4626H         LINE#         507
  C:4630H         LINE#         508
  C:463AH         LINE#         509
  C:4644H         LINE#         510
  C:464EH         LINE#         511
  C:4658H         LINE#         513
  C:4662H         LINE#         514
  C:466CH         LINE#         515
  C:4676H         LINE#         516
  C:4680H         LINE#         517
  C:468AH         LINE#         518
BL51 BANKED LINKER/LOCATER V6.22                                                      06/27/2018  11:39:01  PAGE 40


  C:4694H         LINE#         520
  -------         ENDPROC       ANGCALDATAINIT
  -------         PROC          CALIBINIT
  C:47ADH         LINE#         530
  C:47ADH         LINE#         531
  C:47ADH         LINE#         532
  C:47BBH         LINE#         533
  C:47C9H         LINE#         534
  C:47D5H         LINE#         535
  C:47E1H         LINE#         536
  C:47EDH         LINE#         537
  C:47F9H         LINE#         540
  C:4807H         LINE#         541
  C:4815H         LINE#         542
  C:4821H         LINE#         543
  C:482DH         LINE#         544
  C:4839H         LINE#         545
  C:4845H         LINE#         548
  C:4853H         LINE#         549
  C:485FH         LINE#         550
  C:486BH         LINE#         551
  C:4877H         LINE#         552
  C:4883H         LINE#         555
  C:4891H         LINE#         556
  C:489DH         LINE#         557
  C:48A9H         LINE#         558
  C:48B5H         LINE#         559
  C:48C1H         LINE#         562
  -------         ENDPROC       CALIBINIT
  -------         ENDMOD        CALIBRATION

  -------         MODULE        CALMCUT
  C:0000H         SYMBOL        _ICE_DUMMY_
  D:0090H         PUBLIC        P1
  D:00A0H         PUBLIC        P2
  C:7C20H         PUBLIC        McuT_CalStop
  C:7C56H         PUBLIC        McuT_CalSta
  C:75B4H         PUBLIC        _Mcut_CalSamp
  C:6EB8H         SYMBOL        McuTCalcPrm
  C:3B12H         SYMBOL        _Mcut_CalcPrm
  X:09F4H         PUBLIC        McuTcal
  C:6B63H         PUBLIC        CalibMtInit
  C:76B2H         SYMBOL        _McuT_RdAdcVal
  C:7C4EH         SYMBOL        _McuT_SetCalCnt
  X:0AD1H         SYMBOL        mtemp_buf
  C:4EF1H         PUBLIC        MTCalDataInit
  C:7881H         SYMBOL        _McuT_RdTempVal
  C:76C9H         SYMBOL        _McuT_WrAdcVal
  C:7C1AH         PUBLIC        GetMcuTCalCnt
  C:6BB0H         PUBLIC        _McuT_CalValWr
  D:0016H         SYMBOL        PMCUTCAL
  C:7AB2H         PUBLIC        _GetMcuTCalAdcVal
  C:7AF6H         PUBLIC        _SetMcuTCalCnt
  C:7892H         SYMBOL        _McuT_WrTempVal
  C:77CCH         PUBLIC        _SetMcuTCalAdcVal
  C:7AA6H         PUBLIC        _GetMcuTCalTempVal
  C:77B7H         PUBLIC        _SetMcuTCalTempVal
BL51 BANKED LINKER/LOCATER V6.22                                                      06/27/2018  11:39:01  PAGE 41


  -------         PROC          _MCUT_SETCALCNT
  D:0001H         SYMBOL        p_cal
  D:0005H         SYMBOL        num
  C:7C4EH         LINE#         15
  C:7C4EH         LINE#         16
  C:7C4EH         LINE#         17
  -------         ENDPROC       _MCUT_SETCALCNT
  -------         PROC          _MCUT_RDTEMPVAL
  D:0001H         SYMBOL        p_cal
  D:0005H         SYMBOL        posid
  C:7881H         LINE#         28
  C:7881H         LINE#         29
  C:7881H         LINE#         30
  C:7891H         LINE#         31
  -------         ENDPROC       _MCUT_RDTEMPVAL
  -------         PROC          _MCUT_RDADCVAL
  D:0001H         SYMBOL        p_cal
  D:0005H         SYMBOL        posid
  C:76B2H         LINE#         39
  C:76B2H         LINE#         40
  C:76B2H         LINE#         41
  C:76C8H         LINE#         42
  -------         ENDPROC       _MCUT_RDADCVAL
  -------         PROC          _MCUT_WRTEMPVAL
  D:0001H         SYMBOL        p_cal
  D:0004H         SYMBOL        val
  D:002EH         SYMBOL        posid
  C:7892H         LINE#         51
  C:7892H         LINE#         52
  C:7892H         LINE#         53
  -------         ENDPROC       _MCUT_WRTEMPVAL
  -------         PROC          _MCUT_WRADCVAL
  D:0001H         SYMBOL        p_cal
  D:0004H         SYMBOL        val
  D:002EH         SYMBOL        posid
  C:76C9H         LINE#         63
  C:76C9H         LINE#         64
  C:76C9H         LINE#         65
  -------         ENDPROC       _MCUT_WRADCVAL
  -------         PROC          _MCUT_CALCPRM
  D:0025H         SYMBOL        p_cal
  -------         DO            
  D:0028H         SYMBOL        i
  D:0029H         SYMBOL        aa
  -------         ENDDO         
  C:3B12H         LINE#         75
  C:3B18H         LINE#         76
  C:3B18H         LINE#         79
  C:3B2FH         LINE#         80
  C:3B2FH         LINE#         81
  C:3B64H         LINE#         82
  C:3BFDH         LINE#         83
  C:3C77H         LINE#         84
  C:3C7CH         LINE#         85
  -------         ENDPROC       _MCUT_CALCPRM
  -------         PROC          _SETMCUTCALCNT
  D:0005H         SYMBOL        cnt
BL51 BANKED LINKER/LOCATER V6.22                                                      06/27/2018  11:39:01  PAGE 42


  C:7AF6H         LINE#         94
  C:7AF8H         LINE#         95
  C:7AF8H         LINE#         96
  -------         ENDPROC       _SETMCUTCALCNT
  -------         PROC          GETMCUTCALCNT
  C:7C1AH         LINE#         106
  C:7C1AH         LINE#         107
  C:7C1AH         LINE#         108
  C:7C1FH         LINE#         109
  -------         ENDPROC       GETMCUTCALCNT
  -------         PROC          _GETMCUTCALTEMPVAL
  D:0005H         SYMBOL        pos
  C:7AA6H         LINE#         118
  C:7AA8H         LINE#         119
  C:7AA8H         LINE#         120
  C:7AB1H         LINE#         121
  -------         ENDPROC       _GETMCUTCALTEMPVAL
  -------         PROC          _GETMCUTCALADCVAL
  D:0005H         SYMBOL        pos
  C:7AB2H         LINE#         130
  C:7AB4H         LINE#         131
  C:7AB4H         LINE#         132
  C:7ABDH         LINE#         133
  -------         ENDPROC       _GETMCUTCALADCVAL
  -------         PROC          _SETMCUTCALTEMPVAL
  D:0082H         SYMBOL        val
  D:0007H         SYMBOL        pos
  C:77B7H         LINE#         141
  C:77BDH         LINE#         142
  C:77BDH         LINE#         143
  -------         ENDPROC       _SETMCUTCALTEMPVAL
  -------         PROC          _SETMCUTCALADCVAL
  D:0082H         SYMBOL        val
  D:0007H         SYMBOL        pos
  C:77CCH         LINE#         152
  C:77D2H         LINE#         153
  C:77D2H         LINE#         154
  -------         ENDPROC       _SETMCUTCALADCVAL
  -------         PROC          CALIBMTINIT
  C:6B63H         LINE#         159
  C:6B63H         LINE#         160
  C:6B63H         LINE#         161
  C:6B71H         LINE#         162
  C:6B7FH         LINE#         163
  C:6B8BH         LINE#         164
  C:6B97H         LINE#         165
  C:6BA3H         LINE#         166
  C:6BAFH         LINE#         168
  -------         ENDPROC       CALIBMTINIT
  -------         PROC          MTCALDATAINIT
  -------         DO            
  D:0022H         SYMBOL        i
  -------         ENDDO         
  C:4EF1H         LINE#         178
  C:4EF1H         LINE#         179
  C:4EF1H         LINE#         181
  C:4EF6H         LINE#         182
BL51 BANKED LINKER/LOCATER V6.22                                                      06/27/2018  11:39:01  PAGE 43


  C:4EF9H         LINE#         183
  C:4EF9H         LINE#         184
  C:4F28H         LINE#         185
  C:4F2CH         LINE#         186
  C:4F2CH         LINE#         187
  C:4F3FH         LINE#         188
  C:4F3FH         LINE#         189
  C:4F68H         LINE#         190
  C:4F70H         LINE#         203
  C:4F83H         LINE#         204
  C:4F99H         LINE#         205
  C:4FA4H         LINE#         206
  C:4FAFH         LINE#         207
  C:4FB9H         LINE#         209
  C:4FC3H         LINE#         210
  C:4FCBH         LINE#         211
  C:4FD2H         LINE#         212
  C:4FD9H         LINE#         213
  C:4FE0H         LINE#         215
  -------         ENDPROC       MTCALDATAINIT
  -------         PROC          MCUTCALCPRM
  C:6EB8H         LINE#         250
  C:6EB8H         LINE#         251
  C:6EB8H         LINE#         253
  C:6EEDH         LINE#         255
  -------         ENDPROC       MCUTCALCPRM
  -------         PROC          _MCUT_CALVALWR
  D:0030H         SYMBOL        id
  D:0004H         SYMBOL        temp
  D:0031H         SYMBOL        tadc
  C:6BB0H         LINE#         266
  C:6BB6H         LINE#         267
  C:6BB6H         LINE#         268
  C:6BC0H         LINE#         269
  C:6BDDH         LINE#         270
  C:6BFAH         LINE#         272
  C:6BFCH         LINE#         273
  -------         ENDPROC       _MCUT_CALVALWR
  -------         PROC          MCUT_CALSTA
  C:7C56H         LINE#         281
  C:7C56H         LINE#         282
  C:7C56H         LINE#         285
  C:7C58H         LINE#         286
  -------         ENDPROC       MCUT_CALSTA
  -------         PROC          MCUT_CALSTOP
  C:7C20H         LINE#         294
  C:7C20H         LINE#         295
  C:7C20H         LINE#         298
  C:7C23H         LINE#         299
  C:7C25H         LINE#         300
  -------         ENDPROC       MCUT_CALSTOP
  -------         PROC          _MCUT_CALSAMP
  D:0007H         SYMBOL        id
  D:002CH         SYMBOL        temp
  D:002EH         SYMBOL        tadc
  C:75B4H         LINE#         302
  C:75BCH         LINE#         303
BL51 BANKED LINKER/LOCATER V6.22                                                      06/27/2018  11:39:01  PAGE 44


  C:75BCH         LINE#         306
  C:75C2H         LINE#         307
  C:75C4H         LINE#         308
  C:75CFH         LINE#         309
  C:75D1H         LINE#         310
  -------         ENDPROC       _MCUT_CALSAMP
  -------         ENDMOD        CALMCUT

  -------         MODULE        CMDSUB
  C:0000H         SYMBOL        _ICE_DUMMY_
  C:5F62H         PUBLIC        TempSortAndCalcPrm
  D:0012H         PUBLIC        px_axis
  D:0090H         PUBLIC        P1
  D:0014H         SYMBOL        py_axis
  D:00A0H         PUBLIC        P2
  X:0C5FH         SYMBOL        temp_xcalref
  X:0C61H         SYMBOL        temp_ycalref
  C:6622H         PUBLIC        _Temp_CalSamp
  C:78B4H         PUBLIC        _Mcut_Set
  C:4BE7H         PUBLIC        _Temp_CalTRefSet
  X:0C63H         PUBLIC        SendSpeedNum
  C:76F7H         PUBLIC        Temp_CalStop
  C:77F5H         PUBLIC        Temp_CalSta
  X:0C64H         PUBLIC        SystemVer
  X:0C74H         PUBLIC        SendActPosi
  X:0C75H         PUBLIC        ACalXId
  X:0C76H         PUBLIC        ACalYId
  C:5DD5H         PUBLIC        _Temp_CalValWr
  C:595CH         PUBLIC        Adc_XCalStop
  C:59F3H         PUBLIC        Adc_YCalStop
  -------         PROC          TEMPSORTANDCALCPRM
  C:5F62H         LINE#         81
  C:5F62H         LINE#         82
  C:5F62H         LINE#         84
  C:5FDCH         LINE#         86
  C:5FDFH         LINE#         87
  -------         ENDPROC       TEMPSORTANDCALCPRM
  -------         PROC          _TEMP_CALVALWR
  D:0033H         SYMBOL        id
  D:0004H         SYMBOL        temp
  D:0036H         SYMBOL        x
  D:0038H         SYMBOL        y
  C:5DD5H         LINE#         97
  C:5DDBH         LINE#         98
  C:5DDBH         LINE#         99
  C:5DE5H         LINE#         100
  C:5E0BH         LINE#         102
  C:5E31H         LINE#         103
  C:5E57H         LINE#         104
  C:5E59H         LINE#         105
  -------         ENDPROC       _TEMP_CALVALWR
  -------         PROC          _MCUT_SET
  D:0007H         SYMBOL        setMcuT
  D:0004H         SYMBOL        adcT
  C:78B4H         LINE#         107
  C:78B4H         LINE#         108
  C:78B4H         LINE#         109
BL51 BANKED LINKER/LOCATER V6.22                                                      06/27/2018  11:39:01  PAGE 45


  C:78B9H         LINE#         110
  C:78C1H         LINE#         111
  C:78C3H         LINE#         112
  -------         ENDPROC       _MCUT_SET
  -------         PROC          TEMP_CALSTA
  C:77F5H         LINE#         120
  C:77F5H         LINE#         121
  C:77F5H         LINE#         122
  C:77FEH         LINE#         123
  C:7804H         LINE#         124
  C:7806H         LINE#         125
  -------         ENDPROC       TEMP_CALSTA
  -------         PROC          TEMP_CALSTOP
  C:76F7H         LINE#         133
  C:76F7H         LINE#         134
  C:76F7H         LINE#         135
  C:7702H         LINE#         136
  C:7707H         LINE#         137
  C:770AH         LINE#         138
  C:770CH         LINE#         139
  -------         ENDPROC       TEMP_CALSTOP
  -------         PROC          _TEMP_CALSAMP
  D:0007H         SYMBOL        id
  D:002DH         SYMBOL        temp
  D:002FH         SYMBOL        x
  D:0031H         SYMBOL        y
  C:6622H         LINE#         141
  C:662AH         LINE#         142
  C:662AH         LINE#         143
  C:6632H         LINE#         144
  C:6635H         LINE#         146
  C:6638H         LINE#         147
  C:6638H         LINE#         148
  C:6642H         LINE#         149
  C:664AH         LINE#         150
  C:664AH         LINE#         151
  C:6674H         LINE#         152
  C:6676H         LINE#         154
  C:6685H         LINE#         155
  C:6687H         LINE#         156
  -------         ENDPROC       _TEMP_CALSAMP
  -------         PROC          _TEMP_CALTREFSET
  D:002CH         SYMBOL        id
  -------         DO            
  D:0007H         SYMBOL        i
  D:002DH         SYMBOL        x
  D:002FH         SYMBOL        y
  -------         ENDDO         
  C:4BE7H         LINE#         164
  C:4BE9H         LINE#         165
  C:4BE9H         LINE#         169
  C:4C0AH         LINE#         170
  C:4C30H         LINE#         171
  C:4C56H         LINE#         173
  C:4C74H         LINE#         174
  C:4C74H         LINE#         175
  C:4CA9H         LINE#         176
BL51 BANKED LINKER/LOCATER V6.22                                                      06/27/2018  11:39:01  PAGE 46


  C:4CDEH         LINE#         177
  C:4CE2H         LINE#         178
  C:4CE8H         LINE#         179
  C:4CEBH         LINE#         180
  C:4CEDH         LINE#         181
  -------         ENDPROC       _TEMP_CALTREFSET
  -------         PROC          ADC_XCALSTOP
  -------         DO            
  D:0022H         SYMBOL        n
  -------         ENDDO         
  C:595CH         LINE#         228
  C:595CH         LINE#         229
  C:595CH         LINE#         230
  C:5976H         LINE#         232
  C:5981H         LINE#         233
  C:598CH         LINE#         234
  C:5991H         LINE#         235
  C:59EDH         LINE#         237
  C:59F0H         LINE#         238
  C:59F2H         LINE#         239
  -------         ENDPROC       ADC_XCALSTOP
  -------         PROC          ADC_YCALSTOP
  -------         DO            
  D:0022H         SYMBOL        n
  -------         ENDDO         
  C:59F3H         LINE#         276
  C:59F3H         LINE#         277
  C:59F3H         LINE#         278
  C:5A0DH         LINE#         280
  C:5A18H         LINE#         281
  C:5A23H         LINE#         282
  C:5A28H         LINE#         283
  C:5A84H         LINE#         285
  C:5A87H         LINE#         286
  C:5A89H         LINE#         287
  -------         ENDPROC       ADC_YCALSTOP
  -------         ENDMOD        CMDSUB

  -------         MODULE        COMM
  C:0000H         SYMBOL        _ICE_DUMMY_
  D:0090H         PUBLIC        P1
  D:00A0H         PUBLIC        P2
  B:00A8H.7       PUBLIC        EA
  C:002EH         PUBLIC        Comm_TimerProc
  C:7B22H         PUBLIC        Comm_TimerInit
  D:00A7H         PUBLIC        SFRPAGE
  C:58B8H         PUBLIC        _Comm_GetChar
  X:06B3H         SYMBOL        CommTimer
  D:00B8H         PUBLIC        IP
  C:6249H         PUBLIC        Comm_Isr
  C:7C52H         PUBLIC        Comm_SendStop
  C:7C26H         PUBLIC        Comm_SendSta
  D:00ABH         PUBLIC        SBCON0
  B:0098H.7       PUBLIC        OVR0
  C:5CC4H         PUBLIC        _Comm_PutChar
  X:06B5H         PUBLIC        CommBuf
  C:74A4H         PUBLIC        Comm_HardwareInit
BL51 BANKED LINKER/LOCATER V6.22                                                      06/27/2018  11:39:01  PAGE 47


  X:0855H         PUBLIC        Commsetup
  B:00A8H.4       PUBLIC        ES0
  B:0098H.0       PUBLIC        RI0
  B:0098H.1       PUBLIC        TI0
  B:0020H.0       PUBLIC        CommRxFlag
  C:5B1CH         PUBLIC        Comm_SoftwareInit
  B:0020H.1       PUBLIC        CommTxFlag
  C:56CAH         PUBLIC        _Comm_GetTxChar
  D:0099H         PUBLIC        SBUF0
  C:740EH         PUBLIC        _Comm_PutStr
  D:00ACH         PUBLIC        SBRL0
  D:00A9H         PUBLIC        SMOD0
  D:0098H         PUBLIC        SCON0
  C:5E5AH         PUBLIC        _Comm_PutRxChar
  -------         PROC          COMM_ISR
  -------         DO            
  D:006EH         SYMBOL        temp
  D:006FH         SYMBOL        err
  -------         ENDDO         
  C:6249H         LINE#         29
  C:6266H         LINE#         34
  C:6269H         LINE#         35
  C:626BH         LINE#         36
  C:6276H         LINE#         37
  C:627CH         LINE#         38
  C:627FH         LINE#         40
  C:6281H         LINE#         41
  C:6283H         LINE#         43
  C:6286H         LINE#         44
  C:6288H         LINE#         45
  C:6288H         LINE#         46
  C:6288H         LINE#         48
  C:628BH         LINE#         49
  C:628DH         LINE#         50
  C:6290H         LINE#         52
  C:6293H         LINE#         54
  C:6293H         LINE#         55
  C:6298H         LINE#         56
  C:629BH         LINE#         58
  C:629BH         LINE#         59
  C:629BH         LINE#         61
  C:629EH         LINE#         62
  C:62A0H         LINE#         63
  C:62A0H         LINE#         64
  -------         ENDPROC       COMM_ISR
  -------         PROC          COMM_HARDWAREINIT
  -------         DO            
  D:0007H         SYMBOL        SfrPage_
  -------         ENDDO         
  C:74A4H         LINE#         66
  C:74A4H         LINE#         67
  C:74A6H         LINE#         70
  C:74A9H         LINE#         71
  C:74ACH         LINE#         75
  C:74B2H         LINE#         76
  C:74B5H         LINE#         90
  C:74B8H         LINE#         91
BL51 BANKED LINKER/LOCATER V6.22                                                      06/27/2018  11:39:01  PAGE 48


  C:74BAH         LINE#         93
  C:74BDH         LINE#         94
  C:74C3H         LINE#         95
  C:74C5H         LINE#         96
  C:74C7H         LINE#         97
  -------         ENDPROC       COMM_HARDWAREINIT
  -------         PROC          COMM_SOFTWAREINIT
  -------         DO            
  D:0021H         SYMBOL        p_buf
  -------         ENDDO         
  C:5B1CH         LINE#         99
  C:5B1CH         LINE#         100
  C:5B1CH         LINE#         101
  C:5B25H         LINE#         103
  C:5B31H         LINE#         104
  C:5B4CH         LINE#         105
  C:5B67H         LINE#         106
  C:5B76H         LINE#         107
  C:5B8FH         LINE#         108
  C:5BAAH         LINE#         109
  -------         ENDPROC       COMM_SOFTWAREINIT
  -------         PROC          COMM_SENDSTA
  C:7C26H         LINE#         130
  C:7C26H         LINE#         131
  C:7C26H         LINE#         132
  C:7C29H         LINE#         133
  C:7C2BH         LINE#         134
  -------         ENDPROC       COMM_SENDSTA
  -------         PROC          COMM_SENDSTOP
  C:7C52H         LINE#         136
  C:7C52H         LINE#         137
  C:7C52H         LINE#         138
  C:7C55H         LINE#         139
  -------         ENDPROC       COMM_SENDSTOP
  -------         PROC          _COMM_GETTXCHAR
  D:0070H         SYMBOL        err
  -------         DO            
  D:0073H         SYMBOL        p_buf
  D:0007H         SYMBOL        c
  -------         ENDDO         
  C:56CAH         LINE#         148
  C:56D0H         LINE#         149
  C:56DCH         LINE#         152
  C:56DEH         LINE#         153
  C:56EDH         LINE#         154
  C:56FDH         LINE#         155
  C:570BH         LINE#         156
  C:5737H         LINE#         157
  C:5752H         LINE#         158
  C:5752H         LINE#         159
  C:575CH         LINE#         160
  C:575EH         LINE#         161
  C:575FH         LINE#         162
  C:575FH         LINE#         164
  C:576AH         LINE#         165
  C:576CH         LINE#         166
  C:576EH         LINE#         167
BL51 BANKED LINKER/LOCATER V6.22                                                      06/27/2018  11:39:01  PAGE 49


  C:576EH         LINE#         168
  -------         ENDPROC       _COMM_GETTXCHAR
  -------         PROC          _COMM_PUTCHAR
  D:0007H         SYMBOL        c
  -------         DO            
  D:003CH         SYMBOL        p_buf
  -------         ENDDO         
  C:5CC4H         LINE#         177
  C:5CC4H         LINE#         178
  C:5CD0H         LINE#         180
  C:5CD2H         LINE#         181
  C:5CE1H         LINE#         182
  C:5CF1H         LINE#         183
  C:5CFFH         LINE#         184
  C:5D2BH         LINE#         185
  C:5D46H         LINE#         186
  C:5D46H         LINE#         187
  C:5D48H         LINE#         188
  C:5D4BH         LINE#         189
  C:5D4BH         LINE#         191
  C:5D4DH         LINE#         192
  C:5D4FH         LINE#         193
  C:5D4FH         LINE#         194
  -------         ENDPROC       _COMM_PUTCHAR
  -------         PROC          _COMM_PUTRXCHAR
  D:0007H         SYMBOL        c
  -------         DO            
  D:0070H         SYMBOL        p_buf
  -------         ENDDO         
  C:5E5AH         LINE#         207
  C:5E5AH         LINE#         208
  C:5E66H         LINE#         210
  C:5E68H         LINE#         211
  C:5E74H         LINE#         212
  C:5E81H         LINE#         213
  C:5E95H         LINE#         214
  C:5EC0H         LINE#         215
  C:5EDBH         LINE#         216
  C:5EDBH         LINE#         217
  C:5EDBH         LINE#         218
  C:5EDDH         LINE#         219
  -------         ENDPROC       _COMM_PUTRXCHAR
  -------         PROC          _COMM_GETCHAR
  D:0021H         SYMBOL        err
  -------         DO            
  D:0024H         SYMBOL        p_buf
  D:0007H         SYMBOL        c
  -------         ENDDO         
  C:58B8H         LINE#         227
  C:58BEH         LINE#         228
  C:58CAH         LINE#         231
  C:58CCH         LINE#         232
  C:58D8H         LINE#         233
  C:58E5H         LINE#         234
  C:58F9H         LINE#         235
  C:5924H         LINE#         236
  C:593FH         LINE#         237
BL51 BANKED LINKER/LOCATER V6.22                                                      06/27/2018  11:39:01  PAGE 50


  C:593FH         LINE#         238
  C:5949H         LINE#         239
  C:594BH         LINE#         240
  C:594CH         LINE#         241
  C:594CH         LINE#         243
  C:5957H         LINE#         244
  C:5959H         LINE#         245
  C:595BH         LINE#         246
  C:595BH         LINE#         247
  -------         ENDPROC       _COMM_GETCHAR
  -------         PROC          _COMM_PUTSTR
  D:0039H         SYMBOL        ptr
  D:0005H         SYMBOL        n
  -------         DO            
  D:0006H         SYMBOL        i
  -------         ENDDO         
  C:740EH         LINE#         250
  C:7414H         LINE#         251
  C:7414H         LINE#         253
  C:741BH         LINE#         254
  C:7430H         LINE#         255
  C:7433H         LINE#         256
  -------         ENDPROC       _COMM_PUTSTR
  -------         PROC          COMM_TIMERINIT
  C:7B22H         LINE#         264
  C:7B22H         LINE#         265
  C:7B22H         LINE#         266
  C:7B2BH         LINE#         267
  -------         ENDPROC       COMM_TIMERINIT
  -------         PROC          COMM_TIMERPROC
  C:002EH         LINE#         269
  C:002EH         LINE#         270
  C:002EH         LINE#         271
  C:003DH         LINE#         272
  C:003DH         LINE#         273
  C:0048H         LINE#         274
  C:004AH         LINE#         275
  C:004AH         LINE#         276
  -------         ENDPROC       COMM_TIMERPROC
  -------         ENDMOD        COMM

  -------         MODULE        COMPASS
  C:0000H         SYMBOL        _ICE_DUMMY_
  D:0090H         PUBLIC        P1
  D:00A0H         PUBLIC        P2
  B:0090H.5       PUBLIC        RESET
  X:0C27H         PUBLIC        OneOverCosPhi
  X:0C2BH         SYMBOL        XAdcCalBuf
  X:0C31H         SYMBOL        YAdcCalBuf
  C:6F70H         PUBLIC        Comp_CalDataInit
  C:7283H         PUBLIC        Comp_CalInit
  C:7371H         PUBLIC        _Comp_GetAdc
  C:3DE2H         PUBLIC        _Comp_AdcCorrectS
  B:0090H.3       PUBLIC        SS
  B:0090H.0       PUBLIC        SCLK
  C:49D4H         PUBLIC        Comp_CalSampProc
  B:0090H.4       PUBLIC        DRDY
BL51 BANKED LINKER/LOCATER V6.22                                                      06/27/2018  11:39:01  PAGE 51


  C:7C59H         PUBLIC        Comp_SpiEnd
  B:0090H.2       PUBLIC        MOSI
  B:0090H.1       PUBLIC        MISO
  C:7B75H         PUBLIC        Comp_HardwareInit
  C:74ECH         PUBLIC        _Comp_SpiByteSend
  X:0C37H         PUBLIC        XOffset
  X:0C39H         PUBLIC        YOffset
  C:3128H         PUBLIC        Comp_AngCntProc
  C:7B01H         PUBLIC        Comp_SpiSta
  X:0C3BH         PUBLIC        SinPhi
  C:34B1H         PUBLIC        Comp_CalPrmtCnt
  C:6E76H         PUBLIC        Comp_SpiByteGet
  X:0C3FH         PUBLIC        XGain
  X:0C41H         PUBLIC        YGain
  C:7C2CH         PUBLIC        Comp_SpiBusyTest
  C:4ADFH         PUBLIC        _Comp_MidFilter
  -------         PROC          COMP_HARDWAREINIT
  C:7B75H         LINE#         45
  C:7B75H         LINE#         46
  C:7B75H         LINE#         47
  C:7B77H         LINE#         48
  C:7B79H         LINE#         49
  C:7B7BH         LINE#         50
  C:7B7DH         LINE#         51
  -------         ENDPROC       COMP_HARDWAREINIT
  -------         PROC          COMP_SPISTA
  C:7B01H         LINE#         62
  C:7B01H         LINE#         63
  C:7B01H         LINE#         64
  C:7B03H         LINE#         65
  C:7B05H         LINE#         66
  C:7B07H         LINE#         67
  C:7B09H         LINE#         68
  C:7B0BH         LINE#         69
  -------         ENDPROC       COMP_SPISTA
  -------         PROC          COMP_SPIBUSYTEST
  C:7C2CH         LINE#         80
  C:7C2CH         LINE#         81
  C:7C2CH         LINE#         82
  C:7C31H         LINE#         83
  -------         ENDPROC       COMP_SPIBUSYTEST
  -------         PROC          _COMP_SPIBYTESEND
  D:0007H         SYMBOL        val
  -------         DO            
  X:0C80H         SYMBOL        i
  -------         ENDDO         
  C:74ECH         LINE#         94
  C:74ECH         LINE#         95
  C:74ECH         LINE#         98
  C:74F8H         LINE#         99
  C:74F8H         LINE#         100
  C:74FBH         LINE#         101
  C:74FFH         LINE#         103
  C:7501H         LINE#         104
  C:7503H         LINE#         105
  C:7505H         LINE#         106
  C:750EH         LINE#         107
BL51 BANKED LINKER/LOCATER V6.22                                                      06/27/2018  11:39:01  PAGE 52


  -------         ENDPROC       _COMP_SPIBYTESEND
  -------         PROC          COMP_SPIBYTEGET
  -------         DO            
  X:0C80H         SYMBOL        val
  X:0C82H         SYMBOL        i
  -------         ENDDO         
  C:6E76H         LINE#         118
  C:6E76H         LINE#         119
  C:6E76H         LINE#         120
  C:6E7DH         LINE#         123
  C:6E7FH         LINE#         124
  C:6E91H         LINE#         125
  C:6E91H         LINE#         126
  C:6E93H         LINE#         127
  C:6E96H         LINE#         128
  C:6E96H         LINE#         129
  C:6EA0H         LINE#         130
  C:6EA0H         LINE#         131
  C:6EA2H         LINE#         132
  C:6EAFH         LINE#         134
  C:6EB7H         LINE#         135
  -------         ENDPROC       COMP_SPIBYTEGET
  -------         PROC          COMP_SPIEND
  C:7C59H         LINE#         146
  C:7C59H         LINE#         147
  C:7C59H         LINE#         148
  C:7C5BH         LINE#         149
  -------         ENDPROC       COMP_SPIEND
  -------         PROC          L?0054
  -------         ENDPROC       L?0054
  -------         PROC          _COMP_GETADC
  D:0007H         SYMBOL        cmd
  -------         DO            
  X:0C7EH         SYMBOL        val
  -------         ENDDO         
  C:7371H         LINE#         160
  C:7371H         LINE#         161
  C:7371H         LINE#         164
  C:7374H         LINE#         165
  C:7377H         LINE#         166
  C:737DH         LINE#         167
  C:7388H         LINE#         168
  C:738BH         LINE#         170
  C:7393H         LINE#         171
  -------         ENDPROC       _COMP_GETADC
  -------         PROC          _COMP_MIDFILTER
  D:0001H         SYMBOL        buf
  -------         DO            
  X:0C7CH         SYMBOL        min
  X:0C7EH         SYMBOL        max
  X:0C80H         SYMBOL        sum
  -------         ENDDO         
  C:4ADFH         LINE#         182
  C:4ADFH         LINE#         183
  C:4ADFH         LINE#         184
  C:4AECH         LINE#         185
  C:4AFBH         LINE#         186
BL51 BANKED LINKER/LOCATER V6.22                                                      06/27/2018  11:39:01  PAGE 53


  C:4B01H         LINE#         188
  C:4B1FH         LINE#         189
  C:4B42H         LINE#         190
  C:4B57H         LINE#         192
  C:4B82H         LINE#         193
  C:4BADH         LINE#         194
  C:4BC2H         LINE#         196
  C:4BE6H         LINE#         197
  -------         ENDPROC       _COMP_MIDFILTER
  -------         PROC          _COMP_ADCCORRECTS
  D:0021H         SYMBOL        x_ptr
  D:0024H         SYMBOL        y_ptr
  -------         DO            
  X:0C7EH         SYMBOL        x
  X:0C82H         SYMBOL        y
  -------         ENDDO         
  C:3DE2H         LINE#         208
  C:3DE8H         LINE#         209
  C:3DE8H         LINE#         212
  C:3E2CH         LINE#         213
  C:3E76H         LINE#         214
  C:3EC4H         LINE#         215
  C:3EE9H         LINE#         216
  C:3F15H         LINE#         217
  -------         ENDPROC       _COMP_ADCCORRECTS
  -------         PROC          COMP_ANGCNTPROC
  -------         DO            
  X:0C77H         SYMBOL        adc_x
  X:0C79H         SYMBOL        adc_y
  X:0C7BH         SYMBOL        tag
  X:0C7CH         SYMBOL        ang
  -------         ENDDO         
  C:3128H         LINE#         231
  C:3128H         LINE#         232
  C:3128H         LINE#         238
  C:3130H         LINE#         239
  C:313BH         LINE#         240
  C:314DH         LINE#         241
  C:315EH         LINE#         242
  C:316FH         LINE#         243
  C:319FH         LINE#         244
  C:31DBH         LINE#         245
  C:320EH         LINE#         246
  C:3214H         LINE#         247
  C:326AH         LINE#         248
  C:327AH         LINE#         249
  C:327AH         LINE#         250
  C:328BH         LINE#         251
  C:329BH         LINE#         252
  C:32B1H         LINE#         253
  C:32C0H         LINE#         254
  C:32C0H         LINE#         256
  C:32F2H         LINE#         258
  -------         ENDPROC       COMP_ANGCNTPROC
  -------         PROC          COMP_CALINIT
  C:7283H         LINE#         269
  C:7283H         LINE#         270
BL51 BANKED LINKER/LOCATER V6.22                                                      06/27/2018  11:39:01  PAGE 54


  C:7283H         LINE#         271
  C:7289H         LINE#         273
  C:7293H         LINE#         274
  C:729DH         LINE#         275
  C:72A7H         LINE#         276
  C:72B1H         LINE#         277
  -------         ENDPROC       COMP_CALINIT
  -------         PROC          COMP_CALSAMPPROC
  -------         DO            
  X:0C77H         SYMBOL        adc_x
  X:0C79H         SYMBOL        adc_y
  X:0C7BH         SYMBOL        i
  -------         ENDDO         
  C:49D4H         LINE#         288
  C:49D4H         LINE#         289
  C:49D4H         LINE#         294
  C:49D9H         LINE#         295
  C:49D9H         LINE#         296
  C:49EDH         LINE#         297
  C:4A04H         LINE#         298
  C:4A10H         LINE#         299
  C:4A21H         LINE#         300
  C:4A30H         LINE#         301
  C:4A54H         LINE#         302
  C:4A78H         LINE#         303
  C:4AABH         LINE#         304
  C:4ADEH         LINE#         306
  -------         ENDPROC       COMP_CALSAMPPROC
  -------         PROC          COMP_CALPRMTCNT
  -------         DO            
  X:0C7FH         SYMBOL        Phi0
  X:0C83H         SYMBOL        Phi1
  X:0C87H         SYMBOL        Phi
  -------         ENDDO         
  C:34B1H         LINE#         317
  C:34B1H         LINE#         318
  C:34B1H         LINE#         323
  C:34B6H         LINE#         325
  C:34DAH         LINE#         326
  C:34FEH         LINE#         327
  C:351AH         LINE#         328
  C:3536H         LINE#         329
  C:3599H         LINE#         330
  C:35FCH         LINE#         331
  C:362AH         LINE#         332
  C:3641H         LINE#         333
  -------         ENDPROC       COMP_CALPRMTCNT
  -------         PROC          COMP_CALDATAINIT
  C:6F70H         LINE#         346
  C:6F70H         LINE#         347
  C:6F70H         LINE#         348
  C:6F7AH         LINE#         349
  C:6F84H         LINE#         350
  C:6F8EH         LINE#         351
  C:6F98H         LINE#         352
  C:6F9FH         LINE#         353
  C:6FA5H         LINE#         354
BL51 BANKED LINKER/LOCATER V6.22                                                      06/27/2018  11:39:01  PAGE 55


  C:6FABH         LINE#         355
  -------         ENDPROC       COMP_CALDATAINIT
  -------         ENDMOD        COMPASS

  -------         MODULE        DELAY
  C:0000H         SYMBOL        _ICE_DUMMY_
  D:0090H         PUBLIC        P1
  D:00A0H         PUBLIC        P2
  C:7B2CH         PUBLIC        delay_ms_
  C:76E0H         PUBLIC        _delay_ms
  C:7987H         PUBLIC        delay_100us
  -------         PROC          DELAY_100US
  -------         DO            
  D:0006H         SYMBOL        i
  -------         ENDDO         
  C:7987H         LINE#         25
  C:7987H         LINE#         26
  C:7987H         LINE#         29
  C:7995H         LINE#         30
  -------         ENDPROC       DELAY_100US
  -------         PROC          DELAY_MS_
  -------         DO            
  D:0005H         SYMBOL        i
  -------         ENDDO         
  C:7B2CH         LINE#         32
  C:7B2CH         LINE#         33
  C:7B2CH         LINE#         36
  C:7B2EH         LINE#         37
  C:7B31H         LINE#         38
  C:7B35H         LINE#         39
  -------         ENDPROC       DELAY_MS_
  -------         PROC          _DELAY_MS
  D:0002H         SYMBOL        n
  -------         DO            
  D:0082H         SYMBOL        i
  -------         ENDDO         
  C:76E0H         LINE#         41
  C:76E4H         LINE#         42
  C:76E4H         LINE#         45
  C:76F0H         LINE#         46
  C:76F3H         LINE#         47
  C:76F6H         LINE#         48
  -------         ENDPROC       _DELAY_MS
  -------         ENDMOD        DELAY

  -------         MODULE        FILTER
  C:0000H         SYMBOL        _ICE_DUMMY_
  C:50CEH         PUBLIC        _SlideWinFilter
  C:74C8H         PUBLIC        _ValInRange
  C:67ACH         PUBLIC        _Filter_1st
  -------         PROC          _VALINRANGE
  D:0006H         SYMBOL        old_val
  D:0004H         SYMBOL        new_val
  D:0002H         SYMBOL        range
  C:74C8H         LINE#         26
  C:74C8H         LINE#         27
  C:74C8H         LINE#         28
BL51 BANKED LINKER/LOCATER V6.22                                                      06/27/2018  11:39:01  PAGE 56


  C:74E6H         LINE#         29
  C:74E9H         LINE#         31
  C:74EBH         LINE#         32
  -------         ENDPROC       _VALINRANGE
  -------         PROC          _SLIDEWINFILTER
  D:005CH         SYMBOL        pbufpos
  D:005FH         SYMBOL        pbufcnt
  D:0062H         SYMBOL        pbuf
  D:0065H         SYMBOL        val
  D:0067H         SYMBOL        ftcnt
  -------         DO            
  D:0069H         SYMBOL        data_ram
  D:006DH         SYMBOL        i
  -------         ENDDO         
  C:50CEH         LINE#         41
  C:50D4H         LINE#         42
  C:50D4H         LINE#         43
  C:50DDH         LINE#         45
  C:50EBH         LINE#         46
  C:50EBH         LINE#         47
  C:50EFH         LINE#         48
  C:50EFH         LINE#         50
  C:511BH         LINE#         51
  C:5126H         LINE#         54
  C:5137H         LINE#         55
  C:5137H         LINE#         56
  C:513CH         LINE#         57
  C:5141H         LINE#         58
  C:5141H         LINE#         60
  C:5141H         LINE#         61
  C:514EH         LINE#         62
  C:514EH         LINE#         63
  C:517CH         LINE#         64
  C:5180H         LINE#         65
  C:51A6H         LINE#         66
  C:51A6H         LINE#         67
  C:51A6H         LINE#         68
  -------         ENDPROC       _SLIDEWINFILTER
  -------         PROC          _FILTER_1ST
  D:0027H         SYMBOL        old_val
  D:002BH         SYMBOL        new_val
  D:002DH         SYMBOL        filtercnt
  C:67ACH         LINE#         77
  C:67B4H         LINE#         78
  C:67B4H         LINE#         79
  C:6808H         LINE#         80
  -------         ENDPROC       _FILTER_1ST
  -------         ENDMOD        FILTER

  -------         MODULE        FLASH
  C:0000H         SYMBOL        _ICE_DUMMY_
  D:0090H         PUBLIC        P1
  D:00A0H         PUBLIC        P2
  B:00A8H.7       PUBLIC        EA
  D:008FH         PUBLIC        PSCTL
  C:79D0H         SYMBOL        FlashChk
  D:00A7H         PUBLIC        SFRPAGE
BL51 BANKED LINKER/LOCATER V6.22                                                      06/27/2018  11:39:01  PAGE 57


  C:6819H         SYMBOL        _Flash_BufRd
  C:7B7EH         SYMBOL        Ram_CalDataInit
  C:72B2H         SYMBOL        Ram_CalDataInit_User
  D:00FFH         PUBLIC        VDM0CN
  X:04B3H         PUBLIC        DispBuf
  C:64E6H         SYMBOL        _Flash_BufWr
  C:73BDH         SYMBOL        _Flash_PageErase
  C:6865H         PUBLIC        Flash_CalDataUpdate
  C:6AD9H         SYMBOL        _Flash_CalDataUpdate_User
  C:7654H         PUBLIC        Flash_UserDataUpdate
  C:721FH         SYMBOL        _FlashUpdate
  C:28A7H         SYMBOL        _Ram_Buf2CalData
  C:245EH         SYMBOL        _Ram_CalData2Buf
  D:00EFH         PUBLIC        RSTSRC
  D:00ACH         PUBLIC        SBRL0
  C:6FB6H         SYMBOL        _Flash_CheckSum
  C:6974H         SYMBOL        FlashArea_User
  C:6DABH         PUBLIC        Flash_CompDataInit
  C:48C2H         PUBLIC        Flash_CalDataInit
  D:00B7H         PUBLIC        FLKEY
  -------         PROC          FLASH_CALDATAINIT
  -------         DO            
  D:0021H         SYMBOL        SfrPage_
  -------         ENDDO         
  C:48C2H         LINE#         40
  C:48C2H         LINE#         41
  C:48C2H         LINE#         42
  C:48C5H         LINE#         43
  C:48D8H         LINE#         44
  C:48E0H         LINE#         45
  C:48E0H         LINE#         46
  C:48E3H         LINE#         47
  C:48E6H         LINE#         48
  C:48E9H         LINE#         50
  C:48E9H         LINE#         51
  C:48EEH         LINE#         52
  C:48F1H         LINE#         53
  C:4901H         LINE#         54
  C:4901H         LINE#         55
  C:4904H         LINE#         56
  C:4906H         LINE#         58
  C:4906H         LINE#         59
  C:4919H         LINE#         60
  C:4929H         LINE#         61
  C:4929H         LINE#         62
  C:492CH         LINE#         63
  C:4931H         LINE#         64
  C:4942H         LINE#         65
  C:4944H         LINE#         67
  C:4944H         LINE#         68
  C:4947H         LINE#         69
  C:494CH         LINE#         70
  C:494CH         LINE#         71
  C:494CH         LINE#         73
  C:494CH         LINE#         74
  C:494FH         LINE#         76
  C:4957H         LINE#         77
BL51 BANKED LINKER/LOCATER V6.22                                                      06/27/2018  11:39:01  PAGE 58


  C:495FH         LINE#         79
  C:4965H         LINE#         80
  C:4968H         LINE#         82
  C:496EH         LINE#         83
  C:4971H         LINE#         85
  C:4977H         LINE#         86
  C:497AH         LINE#         88
  C:497DH         LINE#         89
  C:499DH         LINE#         91
  C:49A0H         LINE#         93
  C:49D0H         LINE#         94
  C:49D3H         LINE#         95
  -------         ENDPROC       FLASH_CALDATAINIT
  -------         PROC          FLASH_COMPDATAINIT
  -------         DO            
  D:0022H         SYMBOL        SfrPage_
  -------         ENDDO         
  C:6DABH         LINE#         106
  C:6DABH         LINE#         107
  C:6DABH         LINE#         108
  C:6DAEH         LINE#         109
  C:6DC1H         LINE#         110
  C:6DC9H         LINE#         111
  C:6DC9H         LINE#         112
  C:6DCCH         LINE#         113
  C:6DD1H         LINE#         114
  C:6DE4H         LINE#         115
  C:6DE6H         LINE#         117
  C:6DE6H         LINE#         118
  C:6DEBH         LINE#         119
  C:6DEBH         LINE#         120
  C:6DEEH         LINE#         121
  -------         ENDPROC       FLASH_COMPDATAINIT
  -------         PROC          FLASH_CALDATAUPDATE
  C:6865H         LINE#         129
  C:6865H         LINE#         130
  C:6865H         LINE#         131
  C:686AH         LINE#         132
  C:687DH         LINE#         133
  C:6882H         LINE#         134
  C:6895H         LINE#         135
  C:68A8H         LINE#         136
  C:68ADH         LINE#         137
  -------         ENDPROC       FLASH_CALDATAUPDATE
  -------         PROC          FLASH_USERDATAUPDATE
  C:7654H         LINE#         140
  C:7654H         LINE#         141
  C:7654H         LINE#         143
  C:7657H         LINE#         144
  -------         ENDPROC       FLASH_USERDATAUPDATE
  -------         PROC          _FLASHUPDATE
  D:0042H         SYMBOL        addr
  D:0044H         SYMBOL        buf
  D:0047H         SYMBOL        n
  -------         DO            
  B:0020H.2       SYMBOL        ea_temp
  -------         ENDDO         
BL51 BANKED LINKER/LOCATER V6.22                                                      06/27/2018  11:39:01  PAGE 59


  C:721FH         LINE#         148
  C:7229H         LINE#         149
  C:7229H         LINE#         150
  C:722DH         LINE#         151
  C:722FH         LINE#         153
  C:7232H         LINE#         154
  C:7239H         LINE#         155
  C:724CH         LINE#         157
  C:7250H         LINE#         158
  -------         ENDPROC       _FLASHUPDATE
  C:6AD5H         SYMBOL        L?0106
  -------         PROC          L?0105
  -------         ENDPROC       L?0105
  C:6AD5H         SYMBOL        L?0106
  -------         PROC          _FLASH_CALDATAUPDATE_USER
  D:0039H         SYMBOL        page
  D:003AH         SYMBOL        addr
  D:003CH         SYMBOL        buf
  D:003FH         SYMBOL        n
  -------         DO            
  D:0041H         SYMBOL        sum
  D:0082H         SYMBOL        pread
  -------         ENDDO         
  C:6AD9H         LINE#         167
  C:6AE5H         LINE#         168
  C:6AE5H         LINE#         172
  C:6AF1H         LINE#         174
  C:6AF5H         LINE#         175
  C:6AFAH         LINE#         177
  C:6B02H         LINE#         178
  C:6B15H         LINE#         179
  -------         ENDPROC       _FLASH_CALDATAUPDATE_USER
  -------         PROC          RAM_CALDATAINIT
  C:7B7EH         LINE#         187
  C:7B7EH         LINE#         188
  C:7B7EH         LINE#         189
  C:7B81H         LINE#         190
  C:7B84H         LINE#         191
  -------         ENDPROC       RAM_CALDATAINIT
  -------         PROC          _RAM_CALDATA2BUF
  D:0042H         SYMBOL        page
  -------         DO            
  D:0043H         SYMBOL        i
  D:0044H         SYMBOL        j
  D:0046H         SYMBOL        k
  -------         ENDDO         
  C:245EH         LINE#         195
  C:2460H         LINE#         196
  C:2460H         LINE#         199
  C:2469H         LINE#         200
  C:2469H         LINE#         201
  C:246BH         LINE#         202
  C:246BH         LINE#         204
  C:2483H         LINE#         205
  C:249BH         LINE#         206
  C:24B5H         LINE#         207
  C:24CFH         LINE#         209
BL51 BANKED LINKER/LOCATER V6.22                                                      06/27/2018  11:39:01  PAGE 60


  C:24D8H         LINE#         210
  C:24DEH         LINE#         211
  C:24E1H         LINE#         212
  C:24E1H         LINE#         213
  C:2505H         LINE#         214
  C:250CH         LINE#         216
  C:2517H         LINE#         217
  C:251AH         LINE#         218
  C:251AH         LINE#         220
  C:2540H         LINE#         221
  C:2566H         LINE#         222
  C:258CH         LINE#         223
  C:2595H         LINE#         224
  C:25A0H         LINE#         225
  C:25B1H         LINE#         226
  C:25C2H         LINE#         227
  C:25DBH         LINE#         230
  C:25EDH         LINE#         231
  C:25FFH         LINE#         232
  C:2612H         LINE#         234
  C:2623H         LINE#         235
  C:2626H         LINE#         236
  C:2626H         LINE#         237
  C:264CH         LINE#         238
  C:2672H         LINE#         239
  C:267BH         LINE#         241
  C:2686H         LINE#         252
  C:268DH         LINE#         253
  C:268DH         LINE#         254
  C:269BH         LINE#         255
  C:26A5H         LINE#         257
  C:26A5H         LINE#         258
  C:26A5H         LINE#         259
  C:26A8H         LINE#         260
  C:26B1H         LINE#         261
  C:26B1H         LINE#         262
  C:26B9H         LINE#         263
  C:26C1H         LINE#         264
  C:26C9H         LINE#         265
  C:26D1H         LINE#         266
  C:26E0H         LINE#         269
  C:26E6H         LINE#         271
  C:26F8H         LINE#         272
  C:270AH         LINE#         274
  C:271CH         LINE#         275
  C:272EH         LINE#         277
  C:2740H         LINE#         278
  C:2752H         LINE#         279
  C:2764H         LINE#         280
  C:277CH         LINE#         283
  C:2782H         LINE#         284
  C:2795H         LINE#         285
  C:27A8H         LINE#         286
  C:27BBH         LINE#         287
  C:27D5H         LINE#         290
  C:27E0H         LINE#         291
  C:27E7H         LINE#         292
BL51 BANKED LINKER/LOCATER V6.22                                                      06/27/2018  11:39:01  PAGE 61


  C:27E7H         LINE#         293
  C:27F5H         LINE#         294
  C:27FFH         LINE#         297
  C:27FFH         LINE#         298
  C:27FFH         LINE#         299
  C:2802H         LINE#         300
  C:280BH         LINE#         301
  C:280BH         LINE#         302
  C:281AH         LINE#         303
  C:2829H         LINE#         304
  C:2838H         LINE#         305
  C:2847H         LINE#         306
  C:2856H         LINE#         307
  C:2865H         LINE#         308
  C:2874H         LINE#         310
  C:287AH         LINE#         312
  C:287AH         LINE#         313
  C:287AH         LINE#         314
  C:2888H         LINE#         315
  C:2898H         LINE#         317
  C:289EH         LINE#         318
  C:28A6H         LINE#         320
  C:28A6H         LINE#         321
  -------         ENDPROC       _RAM_CALDATA2BUF
  -------         PROC          _RAM_BUF2CALDATA
  D:0023H         SYMBOL        page
  -------         DO            
  D:0024H         SYMBOL        i
  D:0025H         SYMBOL        j
  D:0027H         SYMBOL        k
  -------         ENDDO         
  C:28A7H         LINE#         327
  C:28A9H         LINE#         328
  C:28A9H         LINE#         331
  C:28B2H         LINE#         332
  C:28B2H         LINE#         333
  C:28B4H         LINE#         334
  C:28B4H         LINE#         341
  C:28D5H         LINE#         342
  C:28F6H         LINE#         343
  C:2910H         LINE#         344
  C:292AH         LINE#         346
  C:2933H         LINE#         347
  C:2939H         LINE#         348
  C:293CH         LINE#         349
  C:293CH         LINE#         350
  C:2960H         LINE#         351
  C:2967H         LINE#         354
  C:2972H         LINE#         355
  C:2975H         LINE#         356
  C:2975H         LINE#         357
  C:299BH         LINE#         358
  C:29C1H         LINE#         359
  C:29E7H         LINE#         361
  C:29F0H         LINE#         362
  C:29FBH         LINE#         363
  C:2A0CH         LINE#         364
BL51 BANKED LINKER/LOCATER V6.22                                                      06/27/2018  11:39:01  PAGE 62


  C:2A1DH         LINE#         365
  C:2A35H         LINE#         367
  C:2A4FH         LINE#         368
  C:2A69H         LINE#         369
  C:2A7AH         LINE#         371
  C:2A8BH         LINE#         372
  C:2A8EH         LINE#         373
  C:2A8EH         LINE#         374
  C:2AB4H         LINE#         375
  C:2ADAH         LINE#         376
  C:2AE3H         LINE#         378
  C:2AEEH         LINE#         387
  C:2AEFH         LINE#         388
  C:2AF8H         LINE#         389
  C:2AF8H         LINE#         390
  C:2B00H         LINE#         391
  C:2B08H         LINE#         392
  C:2B10H         LINE#         393
  C:2B18H         LINE#         394
  C:2B27H         LINE#         397
  C:2B2DH         LINE#         399
  C:2B47H         LINE#         400
  C:2B61H         LINE#         402
  C:2B7BH         LINE#         403
  C:2B95H         LINE#         408
  C:2BA9H         LINE#         410
  C:2BAFH         LINE#         412
  C:2BC0H         LINE#         413
  C:2BD1H         LINE#         414
  C:2BE2H         LINE#         415
  C:2BF7H         LINE#         417
  C:2BF9H         LINE#         418
  C:2BFFH         LINE#         419
  C:2BFFH         LINE#         420
  C:2C0EH         LINE#         421
  C:2C1DH         LINE#         422
  C:2C2CH         LINE#         423
  C:2C3BH         LINE#         424
  C:2C4AH         LINE#         425
  C:2C59H         LINE#         426
  C:2C68H         LINE#         427
  C:2C68H         LINE#         429
  -------         ENDPROC       _RAM_BUF2CALDATA
  C:6FACH         SYMBOL        L?0104
  -------         PROC          L?0103
  -------         ENDPROC       L?0103
  C:6FACH         SYMBOL        L?0104
  -------         PROC          _FLASH_CHECKSUM
  D:0001H         SYMBOL        addr
  D:0048H         SYMBOL        n
  -------         DO            
  D:004AH         SYMBOL        pread
  D:0004H         SYMBOL        i
  D:0007H         SYMBOL        sum
  -------         ENDDO         
  C:6FB6H         LINE#         433
  C:6FBAH         LINE#         434
BL51 BANKED LINKER/LOCATER V6.22                                                      06/27/2018  11:39:01  PAGE 63


  C:6FBAH         LINE#         436
  C:6FBCH         LINE#         437
  C:6FC2H         LINE#         438
  C:6FCDH         LINE#         439
  C:6FCDH         LINE#         440
  C:6FE0H         LINE#         441
  C:6FE7H         LINE#         442
  C:6FE7H         LINE#         443
  -------         ENDPROC       _FLASH_CHECKSUM
  -------         PROC          _FLASH_PAGEERASE
  D:0006H         SYMBOL        addr
  -------         DO            
  D:0082H         SYMBOL        pwrite
  B:0020H.3       SYMBOL        ea_temp
  -------         ENDDO         
  C:73BDH         LINE#         452
  C:73BDH         LINE#         453
  C:73BDH         LINE#         454
  C:73C1H         LINE#         457
  C:73C5H         LINE#         458
  C:73C7H         LINE#         459
  C:73CAH         LINE#         460
  C:73CDH         LINE#         461
  C:73D0H         LINE#         462
  C:73D3H         LINE#         463
  C:73D6H         LINE#         464
  C:73D9H         LINE#         465
  C:73DCH         LINE#         466
  C:73DEH         LINE#         467
  C:73E1H         LINE#         468
  C:73E5H         LINE#         469
  -------         ENDPROC       _FLASH_PAGEERASE
  -------         PROC          _FLASH_BUFWR
  D:0006H         SYMBOL        addr
  D:004BH         SYMBOL        buf
  D:004EH         SYMBOL        n
  -------         DO            
  D:0050H         SYMBOL        pwrite
  B:0020H.3       SYMBOL        ea_temp
  D:0052H         SYMBOL        i
  -------         ENDDO         
  C:64E6H         LINE#         478
  C:64ECH         LINE#         479
  C:64ECH         LINE#         480
  C:64F0H         LINE#         484
  C:64F4H         LINE#         485
  C:64F6H         LINE#         486
  C:6506H         LINE#         487
  C:6509H         LINE#         488
  C:650CH         LINE#         489
  C:650FH         LINE#         490
  C:6512H         LINE#         491
  C:6515H         LINE#         492
  C:6518H         LINE#         493
  C:651BH         LINE#         494
  C:653EH         LINE#         495
  C:6541H         LINE#         496
BL51 BANKED LINKER/LOCATER V6.22                                                      06/27/2018  11:39:01  PAGE 64


  C:654BH         LINE#         497
  C:654FH         LINE#         498
  -------         ENDPROC       _FLASH_BUFWR
  C:6809H         SYMBOL        L?0102
  -------         PROC          L?0101
  -------         ENDPROC       L?0101
  C:6809H         SYMBOL        L?0102
  -------         PROC          _FLASH_BUFRD
  D:0006H         SYMBOL        addr
  D:0025H         SYMBOL        buf
  D:0028H         SYMBOL        n
  -------         DO            
  D:002AH         SYMBOL        pread
  B:0020H.2       SYMBOL        ea_temp
  D:0006H         SYMBOL        i
  -------         ENDDO         
  C:6819H         LINE#         507
  C:681FH         LINE#         508
  C:681FH         LINE#         509
  C:6823H         LINE#         512
  C:6827H         LINE#         513
  C:6829H         LINE#         514
  C:6835H         LINE#         515
  C:6835H         LINE#         516
  C:6859H         LINE#         517
  C:6860H         LINE#         518
  C:6864H         LINE#         519
  -------         ENDPROC       _FLASH_BUFRD
  -------         PROC          FLASHCHK
  -------         DO            
  D:0007H         SYMBOL        temp
  -------         ENDDO         
  C:79D0H         LINE#         528
  C:79D0H         LINE#         529
  C:79D0H         LINE#         530
  C:79D5H         LINE#         531
  C:79DBH         LINE#         533
  C:79DDH         LINE#         534
  -------         ENDPROC       FLASHCHK
  -------         PROC          FLASHAREA_USER
  C:6974H         LINE#         543
  C:6974H         LINE#         544
  C:6974H         LINE#         545
  C:6987H         LINE#         546
  C:6997H         LINE#         547
  C:6997H         LINE#         548
  C:699AH         LINE#         549
  C:699DH         LINE#         550
  C:69ADH         LINE#         551
  C:69AFH         LINE#         553
  C:69AFH         LINE#         554
  C:69B4H         LINE#         555
  C:69C9H         LINE#         557
  C:69C9H         LINE#         559
  -------         ENDPROC       FLASHAREA_USER
  -------         PROC          RAM_CALDATAINIT_USER
  C:72B2H         LINE#         570
BL51 BANKED LINKER/LOCATER V6.22                                                      06/27/2018  11:39:01  PAGE 65


  C:72B2H         LINE#         571
  C:72B2H         LINE#         573
  C:72BDH         LINE#         574
  C:72C8H         LINE#         578
  C:72D3H         LINE#         579
  C:72DEH         LINE#         580
  -------         ENDPROC       RAM_CALDATAINIT_USER
  -------         ENDMOD        FLASH

  -------         MODULE        INIT
  C:0000H         SYMBOL        _ICE_DUMMY_
  D:0090H         PUBLIC        P1
  D:00A0H         PUBLIC        P2
  C:6A20H         PUBLIC        Init_SystemPara
  D:00A7H         PUBLIC        SFRPAGE
  D:00A4H         PUBLIC        P0MDOUT
  D:00A5H         PUBLIC        P1MDOUT
  D:00A6H         PUBLIC        P2MDOUT
  C:7531H         PUBLIC        Init_All
  X:0C9BH         PUBLIC        ModuleNum
  D:00E1H         PUBLIC        XBR0
  D:00C7H         PUBLIC        XBR2
  D:00FFH         PUBLIC        VDM0CN
  D:00F1H         PUBLIC        P0MDIN
  D:00F3H         PUBLIC        P2MDIN
  D:00D4H         PUBLIC        P0SKIP
  D:00D6H         PUBLIC        P2SKIP
  D:008FH         PUBLIC        CLKSEL
  D:00A1H         PUBLIC        OSCICN
  C:7622H         SYMBOL        Sys_ClkInit
  C:7434H         PUBLIC        Sys_PortInit
  D:00EFH         PUBLIC        RSTSRC
  -------         PROC          INIT_SYSTEMPARA
  C:6A20H         LINE#         26
  C:6A20H         LINE#         27
  C:6A20H         LINE#         28
  C:6A26H         LINE#         29
  C:6A2AH         LINE#         30
  C:6A47H         LINE#         32
  C:6A51H         LINE#         33
  C:6A57H         LINE#         34
  C:6A5CH         LINE#         35
  C:6A61H         LINE#         37
  C:6A69H         LINE#         38
  C:6A6EH         LINE#         40
  C:6A74H         LINE#         43
  -------         ENDPROC       INIT_SYSTEMPARA
  -------         PROC          SYS_CLKINIT
  -------         DO            
  D:0007H         SYMBOL        SfrPage_
  -------         ENDDO         
  C:7622H         LINE#         45
  C:7622H         LINE#         46
  C:7624H         LINE#         48
  C:7627H         LINE#         50
  C:762AH         LINE#         54
  C:762DH         LINE#         55
BL51 BANKED LINKER/LOCATER V6.22                                                      06/27/2018  11:39:01  PAGE 66


  C:7632H         LINE#         56
  C:7635H         LINE#         57
  C:7638H         LINE#         59
  C:763AH         LINE#         60
  -------         ENDPROC       SYS_CLKINIT
  -------         PROC          SYS_PORTINIT
  -------         DO            
  D:0007H         SYMBOL        SfrPage_
  -------         ENDDO         
  C:7434H         LINE#         62
  C:7434H         LINE#         63
  C:7434H         LINE#         64
  C:7436H         LINE#         65
  C:7439H         LINE#         66
  C:743CH         LINE#         67
  C:743FH         LINE#         68
  C:7442H         LINE#         69
  C:7445H         LINE#         70
  C:7448H         LINE#         71
  C:744BH         LINE#         73
  C:744EH         LINE#         74
  C:7451H         LINE#         75
  C:7454H         LINE#         76
  C:7457H         LINE#         77
  C:7459H         LINE#         78
  -------         ENDPROC       SYS_PORTINIT
  -------         PROC          INIT_ALL
  C:7531H         LINE#         80
  C:7531H         LINE#         81
  C:7531H         LINE#         82
  C:7534H         LINE#         83
  C:7537H         LINE#         85
  C:753AH         LINE#         86
  C:753DH         LINE#         88
  C:7540H         LINE#         89
  C:7543H         LINE#         90
  C:7546H         LINE#         91
  C:7549H         LINE#         92
  C:754CH         LINE#         93
  C:754FH         LINE#         94
  -------         ENDPROC       INIT_ALL
  -------         ENDMOD        INIT

  -------         MODULE        KEY
  C:0000H         SYMBOL        _ICE_DUMMY_
  D:0090H         PUBLIC        P1
  D:00A0H         PUBLIC        P2
  X:0CA7H         PUBLIC        KeyEnb
  -------         ENDMOD        KEY

  -------         MODULE        MAIN
  C:0000H         SYMBOL        _ICE_DUMMY_
  X:0C43H         PUBLIC        YMin
  C:7BDDH         PUBLIC        Main_Temp
  X:0C45H         PUBLIC        XMax
  X:0C47H         PUBLIC        YMax
  D:0090H         PUBLIC        P1
BL51 BANKED LINKER/LOCATER V6.22                                                      06/27/2018  11:39:01  PAGE 67


  D:00A0H         PUBLIC        P2
  B:00A8H.7       PUBLIC        EA
  B:00A0H.5       PUBLIC        LED_S
  D:00A7H         PUBLIC        SFRPAGE
  B:00A0H.7       PUBLIC        LED_X
  X:0C49H         PUBLIC        XAtYMin
  B:00A0H.6       PUBLIC        LED_Y
  X:0C4BH         PUBLIC        XAtYMax
  D:00D9H         PUBLIC        PCA0MD
  C:6FE8H         PUBLIC        main
  X:0C4DH         PUBLIC        AlarmHighLow
  X:0C4FH         PUBLIC        CompVal
  X:0C51H         PUBLIC        CompCalTag
  X:0C52H         PUBLIC        MenuId
  X:0C53H         PUBLIC        SysPowOnTag
  X:0C54H         PUBLIC        TempA
  X:0C56H         PUBLIC        TxBuf
  X:0C5BH         PUBLIC        CompOffset
  X:0C5DH         PUBLIC        XMin
  -------         PROC          MAIN_TEMP
  C:7BDDH         LINE#         27
  C:7BDDH         LINE#         28
  C:7BDDH         LINE#         29
  C:7BDFH         LINE#         30
  C:7BE1H         LINE#         31
  C:7BE3H         LINE#         32
  -------         ENDPROC       MAIN_TEMP
  -------         PROC          MAIN
  C:6FE8H         LINE#         34
  C:6FE8H         LINE#         35
  C:6FE8H         LINE#         37
  C:6FEBH         LINE#         38
  C:6FEEH         LINE#         39
  C:6FF1H         LINE#         40
  C:6FF3H         LINE#         41
  C:6FF6H         LINE#         42
  C:6FFBH         LINE#         43
  C:6FFEH         LINE#         44
  C:7004H         LINE#         45
  C:7004H         LINE#         46
  C:7004H         LINE#         47
  C:7007H         LINE#         48
  C:700AH         LINE#         49
  C:700DH         LINE#         50
  C:7014H         LINE#         51
  C:7014H         LINE#         52
  C:701FH         LINE#         53
  C:7022H         LINE#         54
  C:7022H         LINE#         55
  -------         ENDPROC       MAIN
  -------         ENDMOD        MAIN

  -------         MODULE        MODBUSCRC
  C:0000H         SYMBOL        _ICE_DUMMY_
  D:0090H         PUBLIC        P1
  D:00A0H         PUBLIC        P2
  C:7113H         PUBLIC        _ModbusCrcCnt
BL51 BANKED LINKER/LOCATER V6.22                                                      06/27/2018  11:39:01  PAGE 68


  C:2F28H         SYMBOL        CrcTabHi
  C:3028H         SYMBOL        CrcTabLi
  -------         PROC          _MODBUSCRCCNT
  D:0035H         SYMBOL        ptr
  D:0005H         SYMBOL        len
  -------         DO            
  D:0002H         SYMBOL        index
  D:0007H         SYMBOL        crchi
  D:0004H         SYMBOL        crcli
  -------         ENDDO         
  C:7113H         LINE#         114
  C:7119H         LINE#         115
  C:7119H         LINE#         119
  C:711BH         LINE#         120
  C:711DH         LINE#         122
  C:7123H         LINE#         123
  C:7123H         LINE#         124
  C:7138H         LINE#         125
  C:713EH         LINE#         126
  C:7144H         LINE#         127
  C:7146H         LINE#         128
  C:714CH         LINE#         129
  -------         ENDPROC       _MODBUSCRCCNT
  -------         ENDMOD        MODBUSCRC

  -------         MODULE        MODBUSRTU
  C:0000H         SYMBOL        _ICE_DUMMY_
  D:0090H         PUBLIC        P1
  D:00A0H         PUBLIC        P2
  C:6D21H         SYMBOL        _ModRtu_RlyError
  C:73E6H         PUBLIC        _ModRtu_WrAddr
  C:745AH         PUBLIC        _ModRtu_WrBaud
  X:0C90H         PUBLIC        AngRange
  D:00A7H         PUBLIC        SFRPAGE
  C:71ECH         PUBLIC        _ModRtu_SetZero
  C:68C0H         PUBLIC        _ChkCode
  C:4FE1H         SYMBOL        _ModRtu_RdReg
  C:0BD9H         PUBLIC        _ModRtu_RdVal
  X:0C92H         PUBLIC        customAddr
  X:0C93H         SYMBOL        checkcode
  C:7024H         PUBLIC        _ModRtu_RxProc
  C:7B0CH         PUBLIC        _ModRtu_WrCrc
  C:4CEEH         SYMBOL        _ModRtu_WrReg
  X:0C95H         SYMBOL        udflashtag
  C:16F9H         PUBLIC        _ModRtu_WrVal
  C:2C69H         PUBLIC        _CustomPro
  X:0C96H         PUBLIC        baudsetnum
  C:7ABEH         PUBLIC        _ModRtu_8to16
  C:7A08H         PUBLIC        _ModRtu_Rd16u
  D:00ACH         PUBLIC        SBRL0
  C:7558H         PUBLIC        _ModRtu_Wr16u
  C:5BB5H         SYMBOL        _FloatToInt
  C:6E40H         PUBLIC        _Sumchk
  C:770DH         PUBLIC        _ModRtu_ChkCrc
  X:0C9AH         PUBLIC        Addr
  C:469BH         PUBLIC        _Int32s2val
  C:5BABH         SYMBOL        L?0717
BL51 BANKED LINKER/LOCATER V6.22                                                      06/27/2018  11:39:01  PAGE 69


  -------         PROC          L?0716
  -------         ENDPROC       L?0716
  C:5BABH         SYMBOL        L?0717
  -------         PROC          _FLOATTOINT
  D:003AH         SYMBOL        ang
  D:003EH         SYMBOL        highlow
  -------         DO            
  D:0040H         SYMBOL        temp
  D:0044H         SYMBOL        vol
  -------         ENDDO         
  C:5BB5H         LINE#         29
  C:5BBDH         LINE#         30
  C:5BBDH         LINE#         34
  C:5BCFH         LINE#         35
  C:5BD7H         LINE#         37
  C:5BE7H         LINE#         38
  C:5BE7H         LINE#         39
  C:5BFAH         LINE#         40
  C:5C07H         LINE#         41
  C:5C09H         LINE#         43
  C:5C09H         LINE#         44
  C:5C1CH         LINE#         45
  C:5C33H         LINE#         46
  C:5C33H         LINE#         47
  C:5C37H         LINE#         48
  -------         ENDPROC       _FLOATTOINT
  -------         PROC          _MODRTU_CHKCRC
  D:0001H         SYMBOL        buf
  D:0005H         SYMBOL        len
  C:770DH         LINE#         56
  C:770DH         LINE#         57
  C:770DH         LINE#         58
  C:7713H         LINE#         59
  C:7713H         LINE#         60
  C:7716H         LINE#         61
  C:7716H         LINE#         62
  C:771DH         LINE#         63
  C:771DH         LINE#         64
  C:7720H         LINE#         65
  C:7720H         LINE#         67
  C:7720H         LINE#         68
  C:7722H         LINE#         69
  C:7722H         LINE#         70
  -------         ENDPROC       _MODRTU_CHKCRC
  -------         PROC          _CHKCODE
  D:0025H         SYMBOL        buf
  D:0005H         SYMBOL        len
  -------         DO            
  D:0007H         SYMBOL        i
  -------         ENDDO         
  C:68C0H         LINE#         72
  C:68C6H         LINE#         73
  C:68C6H         LINE#         79
  C:68CDH         LINE#         80
  C:68D7H         LINE#         81
  C:68D7H         LINE#         82
  C:68F3H         LINE#         83
BL51 BANKED LINKER/LOCATER V6.22                                                      06/27/2018  11:39:01  PAGE 70


  C:68F6H         LINE#         84
  C:6914H         LINE#         85
  C:6917H         LINE#         87
  C:6919H         LINE#         89
  -------         ENDPROC       _CHKCODE
  -------         PROC          L?0718
  -------         ENDPROC       L?0718
  -------         PROC          _SUMCHK
  D:0025H         SYMBOL        buf
  D:0028H         SYMBOL        len
  -------         DO            
  X:0C81H         SYMBOL        i
  D:0006H         SYMBOL        codedata
  -------         ENDDO         
  C:6E40H         LINE#         91
  C:6E48H         LINE#         92
  C:6E48H         LINE#         94
  C:6E4BH         LINE#         95
  C:6E5AH         LINE#         96
  C:6E5AH         LINE#         97
  C:6E6DH         LINE#         98
  C:6E75H         LINE#         99
  C:6E75H         LINE#         101
  -------         ENDPROC       _SUMCHK
  -------         PROC          _MODRTU_WRCRC
  D:0001H         SYMBOL        buf
  D:0004H         SYMBOL        crc
  C:7B0CH         LINE#         110
  C:7B0CH         LINE#         111
  C:7B0CH         LINE#         112
  C:7B10H         LINE#         113
  -------         ENDPROC       _MODRTU_WRCRC
  -------         PROC          _MODRTU_8TO16
  D:0001H         SYMBOL        buf
  -------         DO            
  D:0006H         SYMBOL        temp
  -------         ENDDO         
  C:7ABEH         LINE#         122
  C:7ABEH         LINE#         123
  C:7ABEH         LINE#         126
  C:7AC1H         LINE#         127
  C:7AC2H         LINE#         128
  C:7AC9H         LINE#         129
  C:7AC9H         LINE#         130
  -------         ENDPROC       _MODRTU_8TO16
  -------         PROC          _MODRTU_SETZERO
  D:0001H         SYMBOL        buf
  -------         DO            
  D:0039H         SYMBOL        temp
  -------         ENDDO         
  C:71ECH         LINE#         138
  C:71ECH         LINE#         139
  C:71ECH         LINE#         140
  C:71F3H         LINE#         142
  C:71FBH         LINE#         143
  C:71FBH         LINE#         144
  C:7201H         LINE#         145
BL51 BANKED LINKER/LOCATER V6.22                                                      06/27/2018  11:39:01  PAGE 71


  C:7204H         LINE#         146
  C:7206H         LINE#         147
  C:720CH         LINE#         148
  C:720CH         LINE#         149
  C:7213H         LINE#         150
  C:721EH         LINE#         151
  C:721EH         LINE#         152
  -------         ENDPROC       _MODRTU_SETZERO
  -------         PROC          L?0721
  -------         ENDPROC       L?0721
  -------         PROC          _MODRTU_WR16U
  D:0001H         SYMBOL        buf
  -------         DO            
  D:0006H         SYMBOL        temp
  D:0004H         SYMBOL        dat
  -------         ENDDO         
  C:7558H         LINE#         160
  C:7558H         LINE#         161
  C:7558H         LINE#         165
  C:755BH         LINE#         166
  C:755CH         LINE#         167
  C:7563H         LINE#         168
  C:7572H         LINE#         169
  C:7572H         LINE#         170
  -------         ENDPROC       _MODRTU_WR16U
  -------         PROC          _MODRTU_WRADDR
  D:0001H         SYMBOL        buf
  -------         DO            
  D:0006H         SYMBOL        temp
  -------         ENDDO         
  C:73E6H         LINE#         178
  C:73E6H         LINE#         179
  C:73E6H         LINE#         182
  C:73E9H         LINE#         183
  C:73EAH         LINE#         184
  C:73F1H         LINE#         185
  C:7406H         LINE#         186
  C:740BH         LINE#         187
  C:740DH         LINE#         188
  -------         ENDPROC       _MODRTU_WRADDR
  -------         PROC          _MODRTU_WRBAUD
  D:0001H         SYMBOL        buf
  -------         DO            
  D:0006H         SYMBOL        temp
  -------         ENDDO         
  C:745AH         LINE#         196
  C:745AH         LINE#         197
  C:745AH         LINE#         200
  C:745DH         LINE#         201
  C:745EH         LINE#         202
  C:7465H         LINE#         203
  C:7477H         LINE#         204
  C:747CH         LINE#         205
  C:747EH         LINE#         206
  -------         ENDPROC       _MODRTU_WRBAUD
  -------         PROC          _MODRTU_WRVAL
  D:0031H         SYMBOL        addr
BL51 BANKED LINKER/LOCATER V6.22                                                      06/27/2018  11:39:01  PAGE 72


  D:0033H         SYMBOL        buf
  D:0036H         SYMBOL        excode
  -------         DO            
  X:0C8BH         SYMBOL        vol32u
  X:0C8FH         SYMBOL        vol8u
  X:0C77H         SYMBOL        volf
  X:0C7BH         SYMBOL        pc_data
  X:0C7DH         SYMBOL        vol16s
  -------         ENDDO         
  C:16F9H         LINE#         215
  C:1703H         LINE#         216
  C:1703H         LINE#         223
  C:171BH         LINE#         224
  C:1853H         LINE#         225
  C:1853H         LINE#         226
  C:1859H         LINE#         227
  C:1859H         LINE#         228
  C:185BH         LINE#         229
  C:1861H         LINE#         230
  C:1861H         LINE#         231
  C:1863H         LINE#         233
  C:186CH         LINE#         234
  C:186FH         LINE#         235
  C:1871H         LINE#         239
  C:1871H         LINE#         240
  C:1877H         LINE#         241
  C:1880H         LINE#         242
  C:1880H         LINE#         243
  C:1886H         LINE#         244
  C:188FH         LINE#         246
  C:188FH         LINE#         247
  C:188FH         LINE#         248
  C:188FH         LINE#         249
  C:188FH         LINE#         251
  C:188FH         LINE#         253
  C:188FH         LINE#         254
  C:188FH         LINE#         255
  C:189FH         LINE#         256
  C:18A7H         LINE#         257
  C:18B1H         LINE#         258
  C:18B1H         LINE#         259
  C:18B4H         LINE#         260
  C:18B4H         LINE#         261
  C:18B4H         LINE#         262
  C:18B7H         LINE#         263
  C:18BAH         LINE#         265
  C:18BAH         LINE#         266
  C:18BAH         LINE#         267
  C:18BDH         LINE#         268
  C:18BDH         LINE#         269
  C:18C0H         LINE#         270
  C:18C0H         LINE#         271
  C:18C0H         LINE#         272
  C:18D5H         LINE#         273
  C:18D8H         LINE#         274
  C:18D8H         LINE#         275
  C:18D8H         LINE#         276
BL51 BANKED LINKER/LOCATER V6.22                                                      06/27/2018  11:39:01  PAGE 73


  C:18D8H         LINE#         277
  C:18DBH         LINE#         278
  C:18DBH         LINE#         279
  C:18DBH         LINE#         280
  C:18DEH         LINE#         281
  C:18E4H         LINE#         282
  C:18E7H         LINE#         283
  C:18E7H         LINE#         284
  C:18E7H         LINE#         285
  C:18E7H         LINE#         286
  C:18EAH         LINE#         287
  C:18EAH         LINE#         288
  C:18EAH         LINE#         289
  C:18EFH         LINE#         290
  C:18F2H         LINE#         291
  C:18F2H         LINE#         292
  C:18F2H         LINE#         293
  C:18F2H         LINE#         294
  C:18F5H         LINE#         295
  C:18F5H         LINE#         296
  C:18F5H         LINE#         300
  C:18F5H         LINE#         301
  C:18F5H         LINE#         302
  C:18F5H         LINE#         303
  C:18F5H         LINE#         304
  C:18F8H         LINE#         305
  C:18F8H         LINE#         306
  C:18F8H         LINE#         310
  C:18F8H         LINE#         311
  C:18F8H         LINE#         312
  C:18F8H         LINE#         313
  C:18F8H         LINE#         314
  C:18FBH         LINE#         315
  C:18FBH         LINE#         316
  C:18FBH         LINE#         317
  C:193EH         LINE#         318
  C:195AH         LINE#         319
  C:195AH         LINE#         320
  C:195DH         LINE#         321
  C:195FH         LINE#         322
  C:197EH         LINE#         323
  C:197EH         LINE#         324
  C:1985H         LINE#         325
  C:1985H         LINE#         326
  C:1988H         LINE#         327
  C:1988H         LINE#         328
  C:1988H         LINE#         329
  C:1988H         LINE#         330
  C:198BH         LINE#         331
  C:198BH         LINE#         332
  C:198BH         LINE#         333
  C:19CEH         LINE#         334
  C:19EAH         LINE#         335
  C:19EAH         LINE#         336
  C:19EAH         LINE#         337
  C:19EDH         LINE#         338
  C:1A0CH         LINE#         339
BL51 BANKED LINKER/LOCATER V6.22                                                      06/27/2018  11:39:01  PAGE 74


  C:1A0CH         LINE#         340
  C:1A10H         LINE#         341
  C:1A10H         LINE#         342
  C:1A13H         LINE#         343
  C:1A13H         LINE#         344
  C:1A13H         LINE#         345
  C:1A13H         LINE#         346
  C:1A16H         LINE#         347
  C:1A16H         LINE#         348
  C:1A16H         LINE#         349
  C:1A16H         LINE#         350
  C:1A16H         LINE#         351
  C:1A16H         LINE#         352
  C:1A19H         LINE#         353
  C:1A19H         LINE#         354
  C:1A19H         LINE#         355
  C:1A19H         LINE#         356
  C:1A1CH         LINE#         357
  C:1A1CH         LINE#         358
  C:1A1CH         LINE#         359
  C:1A1CH         LINE#         360
  C:1A1CH         LINE#         361
  C:1A1CH         LINE#         363
  C:1A1FH         LINE#         364
  C:1A1FH         LINE#         365
  C:1A1FH         LINE#         366
  C:1A2FH         LINE#         367
  C:1A42H         LINE#         368
  C:1A42H         LINE#         369
  C:1A42H         LINE#         370
  C:1A42H         LINE#         371
  C:1A55H         LINE#         372
  C:1A55H         LINE#         373
  C:1A58H         LINE#         374
  C:1A58H         LINE#         375
  C:1A5BH         LINE#         379
  C:1A5BH         LINE#         380
  C:1A5BH         LINE#         381
  C:1A5BH         LINE#         382
  C:1A5BH         LINE#         383
  C:1A5BH         LINE#         384
  C:1A5BH         LINE#         385
  C:1A5BH         LINE#         386
  C:1A5BH         LINE#         387
  C:1A5BH         LINE#         388
  C:1A7AH         LINE#         389
  C:1A8DH         LINE#         390
  C:1A90H         LINE#         391
  C:1A90H         LINE#         392
  C:1A90H         LINE#         393
  C:1A9DH         LINE#         394
  C:1AAEH         LINE#         395
  C:1AB6H         LINE#         396
  C:1AD6H         LINE#         397
  C:1AD6H         LINE#         398
  C:1AD8H         LINE#         399
  C:1ADAH         LINE#         400
BL51 BANKED LINKER/LOCATER V6.22                                                      06/27/2018  11:39:01  PAGE 75


  C:1ADEH         LINE#         401
  C:1AE2H         LINE#         402
  C:1AE6H         LINE#         403
  C:1AEAH         LINE#         404
  C:1AF2H         LINE#         406
  C:1AFDH         LINE#         407
  C:1AFDH         LINE#         408
  C:1AFDH         LINE#         409
  C:1AFDH         LINE#         410
  C:1AFDH         LINE#         411
  C:1AFDH         LINE#         412
  C:1B00H         LINE#         414
  C:1B00H         LINE#         415
  C:1B00H         LINE#         416
  C:1B43H         LINE#         417
  C:1B57H         LINE#         418
  C:1B74H         LINE#         419
  C:1B74H         LINE#         420
  C:1B88H         LINE#         421
  C:1B8AH         LINE#         423
  C:1B8AH         LINE#         424
  C:1BA6H         LINE#         425
  C:1BA6H         LINE#         427
  C:1BD9H         LINE#         429
  C:1BF3H         LINE#         432
  C:1BFBH         LINE#         433
  C:1BFBH         LINE#         434
  C:1C1FH         LINE#         435
  C:1C2BH         LINE#         436
  C:1C2EH         LINE#         438
  C:1C2EH         LINE#         439
  C:1C53H         LINE#         440
  C:1C5FH         LINE#         442
  C:1C5FH         LINE#         443
  C:1C62H         LINE#         444
  C:1C62H         LINE#         445
  C:1C62H         LINE#         446
  C:1C82H         LINE#         447
  C:1C8EH         LINE#         448
  C:1C8EH         LINE#         449
  C:1C91H         LINE#         450
  C:1C91H         LINE#         451
  C:1C94H         LINE#         452
  C:1C94H         LINE#         453
  C:1C94H         LINE#         454
  C:1CB4H         LINE#         455
  C:1CCDH         LINE#         456
  C:1CCDH         LINE#         457
  C:1CD3H         LINE#         458
  C:1CD6H         LINE#         459
  C:1CD8H         LINE#         460
  C:1CE3H         LINE#         461
  C:1CEEH         LINE#         462
  C:1CF1H         LINE#         463
  C:1CF7H         LINE#         464
  C:1CFAH         LINE#         465
  C:1CFCH         LINE#         466
BL51 BANKED LINKER/LOCATER V6.22                                                      06/27/2018  11:39:01  PAGE 76


  C:1D07H         LINE#         467
  C:1D12H         LINE#         468
  C:1D15H         LINE#         469
  C:1D15H         LINE#         470
  C:1D15H         LINE#         471
  C:1D15H         LINE#         472
  C:1D15H         LINE#         473
  C:1D15H         LINE#         474
  C:1D18H         LINE#         475
  C:1D18H         LINE#         476
  C:1D18H         LINE#         477
  C:1D5BH         LINE#         478
  C:1D6FH         LINE#         479
  C:1D8DH         LINE#         480
  C:1D90H         LINE#         481
  C:1D90H         LINE#         482
  C:1D90H         LINE#         483
  C:1D90H         LINE#         484
  C:1D92H         LINE#         485
  C:1D92H         LINE#         486
  C:1D92H         LINE#         487
  C:1DD5H         LINE#         488
  C:1DE9H         LINE#         489
  C:1E07H         LINE#         490
  C:1E09H         LINE#         491
  C:1E09H         LINE#         492
  C:1E09H         LINE#         493
  C:1E09H         LINE#         494
  C:1E0BH         LINE#         495
  C:1E0BH         LINE#         496
  C:1E0BH         LINE#         500
  C:1E0BH         LINE#         501
  C:1E0BH         LINE#         502
  C:1E0BH         LINE#         503
  C:1E0BH         LINE#         504
  C:1E0DH         LINE#         505
  C:1E0DH         LINE#         506
  C:1E0DH         LINE#         510
  C:1E0DH         LINE#         511
  C:1E0DH         LINE#         512
  C:1E0DH         LINE#         513
  C:1E0DH         LINE#         514
  C:1E0FH         LINE#         515
  C:1E0FH         LINE#         516
  C:1E0FH         LINE#         520
  C:1E0FH         LINE#         521
  C:1E0FH         LINE#         522
  C:1E0FH         LINE#         523
  C:1E20H         LINE#         524
  C:1E22H         LINE#         525
  C:1E22H         LINE#         526
  C:1E22H         LINE#         530
  C:1E22H         LINE#         531
  C:1E22H         LINE#         532
  C:1E22H         LINE#         533
  C:1E41H         LINE#         534
  C:1E45H         LINE#         535
BL51 BANKED LINKER/LOCATER V6.22                                                      06/27/2018  11:39:01  PAGE 77


  C:1E47H         LINE#         536
  C:1E47H         LINE#         537
  C:1E47H         LINE#         538
  C:1E66H         LINE#         539
  C:1E69H         LINE#         540
  C:1E6BH         LINE#         542
  C:1E6BH         LINE#         543
  C:1E6BH         LINE#         545
  C:1E6BH         LINE#         547
  C:1E6BH         LINE#         548
  C:1E6BH         LINE#         552
  C:1E6BH         LINE#         553
  C:1E6BH         LINE#         554
  C:1E6BH         LINE#         556
  C:1E6BH         LINE#         558
  C:1E6BH         LINE#         559
  C:1E6BH         LINE#         563
  C:1E6BH         LINE#         565
  C:1E6BH         LINE#         566
  C:1E6BH         LINE#         568
  C:1E6BH         LINE#         570
  C:1E6BH         LINE#         571
  C:1E6BH         LINE#         573
  C:1E6BH         LINE#         574
  C:1E6BH         LINE#         575
  C:1E6BH         LINE#         577
  C:1E6BH         LINE#         580
  C:1E6BH         LINE#         581
  C:1E6BH         LINE#         583
  C:1E6BH         LINE#         585
  C:1E6BH         LINE#         586
  C:1E6BH         LINE#         588
  C:1E6BH         LINE#         589
  C:1E6BH         LINE#         590
  C:1E6BH         LINE#         592
  C:1E6BH         LINE#         594
  C:1E6BH         LINE#         595
  C:1E6BH         LINE#         597
  C:1E6BH         LINE#         599
  C:1E6BH         LINE#         600
  C:1E6BH         LINE#         602
  C:1E6BH         LINE#         603
  C:1E6BH         LINE#         604
  C:1E6BH         LINE#         606
  C:1E6BH         LINE#         609
  C:1E6BH         LINE#         610
  C:1E6BH         LINE#         612
  C:1E6BH         LINE#         614
  C:1E6BH         LINE#         615
  C:1E6BH         LINE#         617
  C:1E6BH         LINE#         618
  C:1E6BH         LINE#         619
  C:1E6BH         LINE#         621
  C:1E6BH         LINE#         624
  C:1E6BH         LINE#         625
  C:1E6BH         LINE#         627
  C:1E76H         LINE#         628
BL51 BANKED LINKER/LOCATER V6.22                                                      06/27/2018  11:39:01  PAGE 78


  C:1E79H         LINE#         629
  C:1E79H         LINE#         630
  C:1E7BH         LINE#         631
  -------         ENDPROC       _MODRTU_WRVAL
  -------         PROC          _MODRTU_RD16U
  D:0001H         SYMBOL        buf
  D:0004H         SYMBOL        dat
  C:7A08H         LINE#         639
  C:7A08H         LINE#         640
  C:7A08H         LINE#         641
  C:7A0EH         LINE#         642
  -------         ENDPROC       _MODRTU_RD16U
  -------         PROC          _MODRTU_RDVAL
  D:0032H         SYMBOL        addr
  D:0034H         SYMBOL        buf
  D:0037H         SYMBOL        excode
  -------         DO            
  X:0C77H         SYMBOL        pc_data
  X:0C79H         SYMBOL        vol16s
  -------         ENDDO         
  C:0BD9H         LINE#         651
  C:0BE3H         LINE#         652
  C:0BE3H         LINE#         656
  C:11B3H         LINE#         657
  C:11B3H         LINE#         659
  C:11B8H         LINE#         660
  C:11BDH         LINE#         662
  C:11C2H         LINE#         664
  C:11C7H         LINE#         665
  C:11CCH         LINE#         667
  C:11D1H         LINE#         668
  C:11D6H         LINE#         670
  C:11E8H         LINE#         671
  C:11F3H         LINE#         672
  C:1206H         LINE#         674
  C:1206H         LINE#         675
  C:1206H         LINE#         676
  C:1209H         LINE#         677
  C:120CH         LINE#         678
  C:120FH         LINE#         679
  C:1212H         LINE#         680
  C:1215H         LINE#         681
  C:1218H         LINE#         682
  C:121BH         LINE#         683
  C:121EH         LINE#         684
  C:1221H         LINE#         685
  C:1224H         LINE#         686
  C:1227H         LINE#         687
  C:122AH         LINE#         688
  C:122DH         LINE#         689
  C:1230H         LINE#         690
  C:1233H         LINE#         691
  C:1236H         LINE#         692
  C:1239H         LINE#         693
  C:123CH         LINE#         694
  C:123FH         LINE#         695
  C:1242H         LINE#         696
BL51 BANKED LINKER/LOCATER V6.22                                                      06/27/2018  11:39:01  PAGE 79


  C:1245H         LINE#         697
  C:1245H         LINE#         698
  C:1245H         LINE#         699
  C:1245H         LINE#         700
  C:1245H         LINE#         701
  C:1245H         LINE#         702
  C:1245H         LINE#         703
  C:1245H         LINE#         704
  C:1245H         LINE#         705
  C:1245H         LINE#         706
  C:1248H         LINE#         707
  C:124BH         LINE#         708
  C:124EH         LINE#         709
  C:1251H         LINE#         710
  C:1254H         LINE#         711
  C:1257H         LINE#         712
  C:125AH         LINE#         713
  C:125DH         LINE#         714
  C:1260H         LINE#         715
  C:1263H         LINE#         716
  C:1266H         LINE#         717
  C:126CH         LINE#         718
  C:126FH         LINE#         722
  C:127BH         LINE#         723
  C:1281H         LINE#         725
  C:1287H         LINE#         726
  C:128DH         LINE#         727
  C:128DH         LINE#         728
  C:128DH         LINE#         729
  C:128DH         LINE#         730
  C:128DH         LINE#         731
  C:128DH         LINE#         732
  C:128DH         LINE#         733
  C:128DH         LINE#         734
  C:128DH         LINE#         735
  C:128DH         LINE#         736
  C:128DH         LINE#         737
  C:128DH         LINE#         738
  C:128DH         LINE#         739
  C:128DH         LINE#         740
  C:128DH         LINE#         741
  C:128DH         LINE#         742
  C:128DH         LINE#         743
  C:128DH         LINE#         744
  C:128DH         LINE#         745
  C:128DH         LINE#         746
  C:128DH         LINE#         747
  C:1298H         LINE#         748
  C:1298H         LINE#         749
  C:1298H         LINE#         750
  C:1298H         LINE#         751
  C:1298H         LINE#         752
  C:1298H         LINE#         753
  C:1298H         LINE#         754
  C:1298H         LINE#         755
  C:1298H         LINE#         756
  C:1298H         LINE#         757
BL51 BANKED LINKER/LOCATER V6.22                                                      06/27/2018  11:39:01  PAGE 80


  C:1298H         LINE#         758
  C:1298H         LINE#         759
  C:1298H         LINE#         760
  C:1298H         LINE#         761
  C:1298H         LINE#         762
  C:1298H         LINE#         763
  C:1298H         LINE#         764
  C:1298H         LINE#         765
  C:1298H         LINE#         766
  C:1298H         LINE#         767
  C:1298H         LINE#         768
  C:12A3H         LINE#         769
  C:12A3H         LINE#         770
  C:12A3H         LINE#         771
  C:12A3H         LINE#         772
  C:12A3H         LINE#         773
  C:12A3H         LINE#         774
  C:12A3H         LINE#         775
  C:12A3H         LINE#         776
  C:12A3H         LINE#         777
  C:12A3H         LINE#         778
  C:12A3H         LINE#         779
  C:12A3H         LINE#         780
  C:12A3H         LINE#         781
  C:12A3H         LINE#         782
  C:12A3H         LINE#         783
  C:12A3H         LINE#         784
  C:12A3H         LINE#         785
  C:12A3H         LINE#         786
  C:12A3H         LINE#         787
  C:12A3H         LINE#         788
  C:12A3H         LINE#         789
  C:12AEH         LINE#         790
  C:12B1H         LINE#         791
  C:12B4H         LINE#         792
  C:12B7H         LINE#         793
  C:12BAH         LINE#         794
  C:12BDH         LINE#         795
  C:12C0H         LINE#         796
  C:12C3H         LINE#         797
  C:12C6H         LINE#         798
  C:12C9H         LINE#         799
  C:12CCH         LINE#         800
  C:12CFH         LINE#         801
  C:12D2H         LINE#         803
  C:12DFH         LINE#         804
  C:12E5H         LINE#         805
  C:12EEH         LINE#         806
  C:1301H         LINE#         807
  C:1301H         LINE#         808
  C:1301H         LINE#         809
  C:1301H         LINE#         810
  C:1301H         LINE#         811
  C:1301H         LINE#         812
  C:1301H         LINE#         813
  C:1301H         LINE#         814
  C:1301H         LINE#         815
BL51 BANKED LINKER/LOCATER V6.22                                                      06/27/2018  11:39:01  PAGE 81


  C:1301H         LINE#         816
  C:1301H         LINE#         817
  C:1301H         LINE#         818
  C:1301H         LINE#         819
  C:1301H         LINE#         820
  C:1301H         LINE#         821
  C:1301H         LINE#         822
  C:1301H         LINE#         823
  C:1301H         LINE#         824
  C:1301H         LINE#         825
  C:1301H         LINE#         826
  C:1301H         LINE#         827
  C:1301H         LINE#         828
  C:1301H         LINE#         829
  C:1301H         LINE#         830
  C:1301H         LINE#         831
  C:130CH         LINE#         832
  C:130CH         LINE#         833
  C:130CH         LINE#         834
  C:130CH         LINE#         835
  C:130CH         LINE#         836
  C:130CH         LINE#         837
  C:130CH         LINE#         838
  C:130CH         LINE#         839
  C:130CH         LINE#         840
  C:130CH         LINE#         841
  C:130CH         LINE#         842
  C:130CH         LINE#         843
  C:130CH         LINE#         844
  C:130CH         LINE#         845
  C:130CH         LINE#         846
  C:130CH         LINE#         847
  C:130CH         LINE#         848
  C:130CH         LINE#         849
  C:130CH         LINE#         850
  C:130CH         LINE#         851
  C:130CH         LINE#         852
  C:130CH         LINE#         853
  C:130CH         LINE#         854
  C:130CH         LINE#         855
  C:130CH         LINE#         856
  C:1323H         LINE#         857
  C:1323H         LINE#         858
  C:1323H         LINE#         859
  C:1323H         LINE#         860
  C:1323H         LINE#         861
  C:1323H         LINE#         862
  C:1323H         LINE#         863
  C:1323H         LINE#         864
  C:1323H         LINE#         865
  C:1323H         LINE#         866
  C:1323H         LINE#         867
  C:1323H         LINE#         868
  C:1323H         LINE#         869
  C:1323H         LINE#         870
  C:1323H         LINE#         871
  C:1323H         LINE#         872
BL51 BANKED LINKER/LOCATER V6.22                                                      06/27/2018  11:39:01  PAGE 82


  C:1323H         LINE#         873
  C:1323H         LINE#         874
  C:1323H         LINE#         875
  C:1323H         LINE#         876
  C:1323H         LINE#         877
  C:1323H         LINE#         878
  C:1323H         LINE#         879
  C:1323H         LINE#         880
  C:1323H         LINE#         881
  C:1344H         LINE#         883
  C:1351H         LINE#         884
  C:1357H         LINE#         885
  C:1360H         LINE#         886
  C:1373H         LINE#         887
  C:1373H         LINE#         888
  C:1373H         LINE#         889
  C:1373H         LINE#         890
  C:1373H         LINE#         891
  C:1373H         LINE#         892
  C:1373H         LINE#         893
  C:1373H         LINE#         894
  C:1373H         LINE#         895
  C:1373H         LINE#         896
  C:1373H         LINE#         897
  C:1373H         LINE#         898
  C:1373H         LINE#         899
  C:1373H         LINE#         900
  C:1373H         LINE#         901
  C:1373H         LINE#         902
  C:1373H         LINE#         903
  C:1373H         LINE#         904
  C:1373H         LINE#         905
  C:1373H         LINE#         906
  C:1373H         LINE#         907
  C:1373H         LINE#         908
  C:1373H         LINE#         909
  C:1373H         LINE#         910
  C:1373H         LINE#         911
  C:137EH         LINE#         912
  C:137EH         LINE#         913
  C:137EH         LINE#         914
  C:137EH         LINE#         915
  C:137EH         LINE#         916
  C:137EH         LINE#         917
  C:137EH         LINE#         918
  C:137EH         LINE#         919
  C:137EH         LINE#         920
  C:137EH         LINE#         921
  C:137EH         LINE#         922
  C:137EH         LINE#         923
  C:137EH         LINE#         924
  C:137EH         LINE#         925
  C:137EH         LINE#         926
  C:137EH         LINE#         927
  C:137EH         LINE#         928
  C:137EH         LINE#         929
  C:137EH         LINE#         930
BL51 BANKED LINKER/LOCATER V6.22                                                      06/27/2018  11:39:01  PAGE 83


  C:137EH         LINE#         931
  C:137EH         LINE#         932
  C:137EH         LINE#         933
  C:137EH         LINE#         934
  C:137EH         LINE#         935
  C:137EH         LINE#         936
  C:1394H         LINE#         937
  C:1394H         LINE#         938
  C:1394H         LINE#         939
  C:1394H         LINE#         940
  C:1394H         LINE#         941
  C:1394H         LINE#         942
  C:1394H         LINE#         943
  C:1394H         LINE#         944
  C:1394H         LINE#         945
  C:1394H         LINE#         946
  C:1394H         LINE#         947
  C:1394H         LINE#         948
  C:1394H         LINE#         949
  C:1394H         LINE#         950
  C:1394H         LINE#         951
  C:1394H         LINE#         952
  C:1394H         LINE#         953
  C:1394H         LINE#         954
  C:1394H         LINE#         955
  C:1394H         LINE#         956
  C:1394H         LINE#         957
  C:1394H         LINE#         958
  C:1394H         LINE#         959
  C:1394H         LINE#         960
  C:1394H         LINE#         961
  C:13B4H         LINE#         963
  C:13C1H         LINE#         964
  C:13C6H         LINE#         965
  C:13CBH         LINE#         966
  C:13D0H         LINE#         967
  C:13D5H         LINE#         968
  C:13DAH         LINE#         969
  C:13DFH         LINE#         970
  C:13E4H         LINE#         971
  C:13F8H         LINE#         972
  C:1402H         LINE#         973
  C:140CH         LINE#         974
  C:1416H         LINE#         975
  C:1420H         LINE#         976
  C:142DH         LINE#         977
  C:1444H         LINE#         978
  C:1451H         LINE#         979
  C:1468H         LINE#         980
  C:1475H         LINE#         981
  C:148CH         LINE#         982
  C:1499H         LINE#         983
  C:14B0H         LINE#         984
  C:14BDH         LINE#         985
  C:14D4H         LINE#         986
  C:14E1H         LINE#         987
  C:14F8H         LINE#         988
BL51 BANKED LINKER/LOCATER V6.22                                                      06/27/2018  11:39:01  PAGE 84


  C:1505H         LINE#         989
  C:151CH         LINE#         990
  C:1529H         LINE#         991
  C:1540H         LINE#         992
  C:154DH         LINE#         993
  C:1564H         LINE#         994
  C:1564H         LINE#         995
  C:1564H         LINE#         996
  C:1564H         LINE#         997
  C:1564H         LINE#         998
  C:1564H         LINE#         999
  C:1564H         LINE#         1000
  C:1564H         LINE#         1001
  C:1564H         LINE#         1002
  C:1571H         LINE#         1003
  C:1588H         LINE#         1004
  C:1595H         LINE#         1005
  C:15ACH         LINE#         1006
  C:15B9H         LINE#         1007
  C:15D0H         LINE#         1008
  C:15DDH         LINE#         1009
  C:15F4H         LINE#         1010
  C:1601H         LINE#         1011
  C:1618H         LINE#         1012
  C:1625H         LINE#         1013
  C:163CH         LINE#         1015
  C:163CH         LINE#         1016
  C:163CH         LINE#         1017
  C:163CH         LINE#         1018
  C:163CH         LINE#         1019
  C:163CH         LINE#         1020
  C:163CH         LINE#         1022
  C:163CH         LINE#         1023
  C:163CH         LINE#         1024
  C:163CH         LINE#         1025
  C:163CH         LINE#         1026
  C:163CH         LINE#         1027
  C:163CH         LINE#         1029
  C:163CH         LINE#         1030
  C:163CH         LINE#         1031
  C:163CH         LINE#         1032
  C:163FH         LINE#         1034
  C:164BH         LINE#         1035
  C:1657H         LINE#         1036
  C:1664H         LINE#         1037
  C:1670H         LINE#         1038
  C:1672H         LINE#         1039
  C:1693H         LINE#         1040
  C:16A0H         LINE#         1041
  C:16ABH         LINE#         1042
  C:16B6H         LINE#         1043
  C:16C3H         LINE#         1044
  C:16CCH         LINE#         1045
  C:16D7H         LINE#         1046
  C:16D7H         LINE#         1047
  C:16D7H         LINE#         1048
  C:16E2H         LINE#         1049
BL51 BANKED LINKER/LOCATER V6.22                                                      06/27/2018  11:39:01  PAGE 85


  C:16E5H         LINE#         1051
  C:16E5H         LINE#         1052
  C:16F6H         LINE#         1053
  C:16F8H         LINE#         1054
  -------         ENDPROC       _MODRTU_RDVAL
  -------         PROC          _MODRTU_RDREG
  D:0025H         SYMBOL        buf
  -------         DO            
  D:0028H         SYMBOL        addr
  D:002AH         SYMBOL        i
  D:002CH         SYMBOL        j
  D:002EH         SYMBOL        crc
  D:0030H         SYMBOL        err_code
  D:0031H         SYMBOL        excode
  -------         ENDDO         
  C:4FE1H         LINE#         1067
  C:4FE7H         LINE#         1068
  C:4FE7H         LINE#         1070
  C:4FECH         LINE#         1071
  C:4FEEH         LINE#         1073
  C:4FF6H         LINE#         1074
  C:5008H         LINE#         1075
  C:501AH         LINE#         1076
  C:502AH         LINE#         1077
  C:502AH         LINE#         1078
  C:5057H         LINE#         1079
  C:5057H         LINE#         1080
  C:505AH         LINE#         1081
  C:505CH         LINE#         1082
  C:505CH         LINE#         1083
  C:5064H         LINE#         1084
  C:506EH         LINE#         1085
  C:5073H         LINE#         1086
  C:5073H         LINE#         1087
  C:507EH         LINE#         1089
  C:507EH         LINE#         1090
  C:508EH         LINE#         1091
  C:50A0H         LINE#         1092
  C:50A9H         LINE#         1093
  C:50BCH         LINE#         1094
  C:50CAH         LINE#         1095
  C:50CDH         LINE#         1096
  -------         ENDPROC       _MODRTU_RDREG
  -------         PROC          _MODRTU_WRREG
  D:0025H         SYMBOL        buf
  D:0028H         SYMBOL        n
  -------         DO            
  D:0029H         SYMBOL        addr
  D:002BH         SYMBOL        i
  D:002DH         SYMBOL        j
  D:0004H         SYMBOL        crc
  D:002FH         SYMBOL        err_code
  D:0030H         SYMBOL        excode
  -------         ENDDO         
  C:4CEEH         LINE#         1104
  C:4CF6H         LINE#         1105
  C:4CF6H         LINE#         1108
BL51 BANKED LINKER/LOCATER V6.22                                                      06/27/2018  11:39:01  PAGE 86


  C:4CF9H         LINE#         1110
  C:4D07H         LINE#         1111
  C:4D42H         LINE#         1112
  C:4D50H         LINE#         1113
  C:4D60H         LINE#         1114
  C:4D60H         LINE#         1115
  C:4D8DH         LINE#         1116
  C:4D8DH         LINE#         1117
  C:4D90H         LINE#         1118
  C:4D92H         LINE#         1119
  C:4D92H         LINE#         1120
  C:4D9AH         LINE#         1121
  C:4DA4H         LINE#         1122
  C:4DAFH         LINE#         1123
  C:4DB4H         LINE#         1124
  C:4DB4H         LINE#         1125
  C:4DB9H         LINE#         1127
  C:4DB9H         LINE#         1128
  C:4DC8H         LINE#         1129
  C:4DD6H         LINE#         1130
  C:4DE1H         LINE#         1131
  C:4DE4H         LINE#         1132
  C:4DEBH         LINE#         1133
  C:4DEBH         LINE#         1134
  C:4DEDH         LINE#         1135
  C:4DF0H         LINE#         1136
  C:4DF0H         LINE#         1137
  -------         ENDPROC       _MODRTU_WRREG
  -------         PROC          _MODRTU_RLYERROR
  D:0032H         SYMBOL        buf
  D:0005H         SYMBOL        excode
  -------         DO            
  D:0004H         SYMBOL        crc
  -------         ENDDO         
  C:6D21H         LINE#         1156
  C:6D27H         LINE#         1157
  C:6D27H         LINE#         1159
  C:6D36H         LINE#         1160
  C:6D43H         LINE#         1161
  C:6D4AH         LINE#         1162
  C:6D57H         LINE#         1163
  C:6D5EH         LINE#         1164
  C:6D63H         LINE#         1165
  -------         ENDPROC       _MODRTU_RLYERROR
  -------         PROC          _MODRTU_RXPROC
  D:0021H         SYMBOL        buf
  D:0024H         SYMBOL        n
  C:7024H         LINE#         1174
  C:702CH         LINE#         1175
  C:702CH         LINE#         1176
  C:7032H         LINE#         1178
  C:7046H         LINE#         1179
  C:7046H         LINE#         1180
  C:7049H         LINE#         1181
  C:7049H         LINE#         1182
  C:7054H         LINE#         1183
  C:7054H         LINE#         1184
BL51 BANKED LINKER/LOCATER V6.22                                                      06/27/2018  11:39:01  PAGE 87


  C:705FH         LINE#         1185
  C:705FH         LINE#         1186
  C:705FH         LINE#         1187
  -------         ENDPROC       _MODRTU_RXPROC
  C:4695H         SYMBOL        L?0720
  -------         PROC          L?0719
  -------         ENDPROC       L?0719
  C:4695H         SYMBOL        L?0720
  -------         PROC          _INT32S2VAL
  D:0025H         SYMBOL        s
  D:0028H         SYMBOL        val
  C:469BH         LINE#         1189
  C:46A9H         LINE#         1190
  C:46A9H         LINE#         1191
  C:46ADH         LINE#         1192
  C:46ADH         LINE#         1193
  C:46B8H         LINE#         1194
  C:46BAH         LINE#         1195
  C:46BCH         LINE#         1197
  C:46BCH         LINE#         1198
  C:46C6H         LINE#         1199
  C:46C6H         LINE#         1202
  C:46E5H         LINE#         1203
  C:4707H         LINE#         1204
  C:471EH         LINE#         1205
  C:4740H         LINE#         1206
  C:4756H         LINE#         1207
  C:4777H         LINE#         1208
  C:478DH         LINE#         1209
  -------         ENDPROC       _INT32S2VAL
  -------         PROC          _CUSTOMPRO
  D:0021H         SYMBOL        buf
  D:0005H         SYMBOL        n
  -------         DO            
  D:0024H         SYMBOL        SfrPage_
  X:0C77H         SYMBOL        val
  -------         ENDDO         
  C:2C69H         LINE#         1212
  C:2C6FH         LINE#         1213
  C:2C6FH         LINE#         1214
  C:2C72H         LINE#         1219
  C:2C7BH         LINE#         1222
  C:2C9CH         LINE#         1223
  C:2C9CH         LINE#         1224
  C:2C9CH         LINE#         1225
  C:2CAAH         LINE#         1226
  C:2CB4H         LINE#         1227
  C:2CBCH         LINE#         1229
  C:2CC2H         LINE#         1231
  C:2CD9H         LINE#         1232
  C:2CEAH         LINE#         1233
  C:2CFBH         LINE#         1235
  C:2D01H         LINE#         1236
  C:2D18H         LINE#         1237
  C:2D29H         LINE#         1238
  C:2D3AH         LINE#         1240
  C:2D41H         LINE#         1241
BL51 BANKED LINKER/LOCATER V6.22                                                      06/27/2018  11:39:01  PAGE 88


  C:2D48H         LINE#         1242
  C:2D4FH         LINE#         1244
  C:2D55H         LINE#         1245
  C:2D68H         LINE#         1246
  C:2D79H         LINE#         1247
  C:2D87H         LINE#         1249
  C:2DB0H         LINE#         1251
  C:2DB2H         LINE#         1252
  C:2DB2H         LINE#         1253
  C:2DB5H         LINE#         1256
  C:2DB5H         LINE#         1257
  C:2DC3H         LINE#         1258
  C:2DCDH         LINE#         1259
  C:2DD5H         LINE#         1261
  C:2DE0H         LINE#         1262
  C:2DE0H         LINE#         1263
  C:2DEEH         LINE#         1264
  C:2E17H         LINE#         1265
  C:2E19H         LINE#         1266
  C:2E19H         LINE#         1267
  C:2E1CH         LINE#         1268
  C:2E1CH         LINE#         1270
  C:2E1CH         LINE#         1271
  C:2E2CH         LINE#         1272
  C:2E33H         LINE#         1273
  C:2E33H         LINE#         1275
  C:2E43H         LINE#         1276
  C:2E48H         LINE#         1277
  C:2E4BH         LINE#         1278
  C:2E52H         LINE#         1279
  C:2E55H         LINE#         1280
  C:2E85H         LINE#         1282
  C:2E88H         LINE#         1283
  C:2E88H         LINE#         1284
  C:2E8BH         LINE#         1287
  C:2E8BH         LINE#         1288
  C:2E99H         LINE#         1289
  C:2EA3H         LINE#         1290
  C:2EABH         LINE#         1292
  C:2EB6H         LINE#         1293
  C:2EB6H         LINE#         1294
  C:2EC4H         LINE#         1295
  C:2EEDH         LINE#         1296
  C:2EF2H         LINE#         1297
  C:2EF5H         LINE#         1298
  C:2EF5H         LINE#         1299
  C:2EF5H         LINE#         1301
  C:2EF5H         LINE#         1302
  C:2F05H         LINE#         1303
  C:2F0CH         LINE#         1304
  C:2F0CH         LINE#         1306
  C:2F1CH         LINE#         1307
  C:2F21H         LINE#         1308
  C:2F24H         LINE#         1309
  C:2F27H         LINE#         1310
  C:2F27H         LINE#         1312
  C:2F27H         LINE#         1313
BL51 BANKED LINKER/LOCATER V6.22                                                      06/27/2018  11:39:01  PAGE 89


  C:2F27H         LINE#         1319
  C:2F27H         LINE#         1320
  -------         ENDPROC       _CUSTOMPRO
  -------         ENDMOD        MODBUSRTU

  -------         MODULE        SEND
  C:0000H         SYMBOL        _ICE_DUMMY_
  C:3475H         PUBLIC        SendSpeed
  D:0090H         PUBLIC        P1
  D:00A0H         PUBLIC        P2
  X:0BADH         PUBLIC        Braud_Num
  D:00A7H         PUBLIC        SFRPAGE
  C:41E6H         PUBLIC        Send_TimeProc
  D:000EH         SYMBOL        px_ax
  D:0010H         SYMBOL        py_ax
  C:3C7DH         SYMBOL        _Send_CDeal
  C:40A0H         SYMBOL        _Send_RDeal
  C:1E7CH         SYMBOL        _Send_SDeal
  C:0003H         SYMBOL        _Send_TDeal
  C:6688H         SYMBOL        _Send_UDeal
  C:4DF1H         SYMBOL        _Send_WDeal
  D:00ACH         PUBLIC        SBRL0
  C:3489H         PUBLIC        Braud
  -------         PROC          SEND_TIMEPROC
  -------         DO            
  X:0AE5H         SYMBOL        rx_buf
  D:0008H         SYMBOL        ptr
  D:000BH         SYMBOL        i
  D:000CH         SYMBOL        err
  D:000DH         SYMBOL        cmd
  -------         ENDDO         
  C:41E6H         LINE#         40
  C:41E6H         LINE#         41
  C:41E6H         LINE#         48
  C:41ECH         LINE#         50
  C:41EEH         LINE#         51
  C:41F7H         LINE#         52
  C:41FAH         LINE#         53
  C:41FAH         LINE#         54
  C:4215H         LINE#         55
  C:421BH         LINE#         56
  C:421BH         LINE#         57
  C:4224H         LINE#         59
  C:422BH         LINE#         60
  C:422BH         LINE#         62
  C:4234H         LINE#         63
  C:4234H         LINE#         64
  C:4234H         LINE#         65
  C:4236H         LINE#         68
  C:4236H         LINE#         70
  C:425BH         LINE#         71
  C:425BH         LINE#         72
  C:426AH         LINE#         73
  C:426AH         LINE#         74
  C:426DH         LINE#         75
  C:426DH         LINE#         77
  C:4270H         LINE#         79
BL51 BANKED LINKER/LOCATER V6.22                                                      06/27/2018  11:39:01  PAGE 90


  C:4270H         LINE#         81
  C:428FH         LINE#         82
  C:428FH         LINE#         84
  C:4298H         LINE#         85
  C:4298H         LINE#         86
  C:42A2H         LINE#         87
  C:42A3H         LINE#         90
  C:42A3H         LINE#         91
  C:42A9H         LINE#         92
  C:42C1H         LINE#         93
  C:42C9H         LINE#         94
  C:42D4H         LINE#         95
  C:42D4H         LINE#         96
  C:42DCH         LINE#         97
  C:42E7H         LINE#         98
  C:42E7H         LINE#         99
  C:42F2H         LINE#         100
  C:42F2H         LINE#         101
  C:42FDH         LINE#         102
  C:42FDH         LINE#         103
  C:4304H         LINE#         104
  C:430FH         LINE#         105
  C:430FH         LINE#         106
  C:4316H         LINE#         107
  C:4321H         LINE#         108
  C:4321H         LINE#         109
  C:4321H         LINE#         110
  -------         ENDPROC       SEND_TIMEPROC
  -------         PROC          _SEND_RDEAL
  D:0021H         SYMBOL        buf
  D:0024H         SYMBOL        n
  -------         DO            
  D:0025H         SYMBOL        data_8u
  -------         ENDDO         
  C:40A0H         LINE#         118
  C:40A8H         LINE#         119
  C:40A8H         LINE#         121
  C:40BDH         LINE#         122
  C:40C6H         LINE#         123
  C:40C9H         LINE#         124
  C:40C9H         LINE#         125
  C:40E4H         LINE#         126
  C:40EDH         LINE#         127
  C:40F0H         LINE#         128
  C:40F0H         LINE#         129
  C:410BH         LINE#         130
  C:4114H         LINE#         131
  C:4117H         LINE#         132
  C:4117H         LINE#         133
  C:4132H         LINE#         134
  C:413BH         LINE#         135
  C:413EH         LINE#         136
  C:413EH         LINE#         137
  C:4159H         LINE#         138
  C:4162H         LINE#         139
  C:4165H         LINE#         140
  C:4165H         LINE#         146
BL51 BANKED LINKER/LOCATER V6.22                                                      06/27/2018  11:39:01  PAGE 91


  C:4180H         LINE#         147
  C:4186H         LINE#         148
  C:4196H         LINE#         149
  C:419FH         LINE#         150
  C:41A4H         LINE#         151
  C:41A4H         LINE#         152
  C:41BFH         LINE#         153
  C:41C4H         LINE#         154
  C:41D4H         LINE#         155
  C:41DDH         LINE#         156
  C:41E2H         LINE#         157
  C:41E2H         LINE#         182
  C:41E5H         LINE#         183
  -------         ENDPROC       _SEND_RDEAL
  -------         PROC          _SEND_CDEAL
  D:0021H         SYMBOL        buf
  D:0024H         SYMBOL        n
  C:3C7DH         LINE#         191
  C:3C85H         LINE#         192
  C:3C85H         LINE#         193
  C:3C9AH         LINE#         194
  C:3CA3H         LINE#         195
  C:3CAEH         LINE#         196
  C:3CB9H         LINE#         197
  C:3CC1H         LINE#         198
  C:3CC1H         LINE#         199
  C:3CC4H         LINE#         200
  C:3CDFH         LINE#         201
  C:3CE8H         LINE#         202
  C:3CF3H         LINE#         203
  C:3CF6H         LINE#         204
  C:3D01H         LINE#         205
  C:3D0CH         LINE#         206
  C:3D0CH         LINE#         247
  C:3D27H         LINE#         248
  C:3D30H         LINE#         249
  C:3D36H         LINE#         250
  C:3D3EH         LINE#         251
  C:3D3EH         LINE#         252
  C:3D41H         LINE#         253
  C:3D41H         LINE#         254
  C:3D44H         LINE#         255
  C:3D5FH         LINE#         256
  C:3D65H         LINE#         257
  C:3D6BH         LINE#         258
  C:3D73H         LINE#         259
  C:3D73H         LINE#         260
  C:3D75H         LINE#         261
  C:3D75H         LINE#         262
  C:3D77H         LINE#         263
  C:3D92H         LINE#         264
  C:3D98H         LINE#         265
  C:3D9EH         LINE#         266
  C:3DA6H         LINE#         267
  C:3DA6H         LINE#         268
  C:3DA8H         LINE#         269
  C:3DA8H         LINE#         270
BL51 BANKED LINKER/LOCATER V6.22                                                      06/27/2018  11:39:01  PAGE 92


  C:3DAAH         LINE#         271
  C:3DC5H         LINE#         272
  C:3DCAH         LINE#         273
  C:3DD0H         LINE#         274
  C:3DDBH         LINE#         275
  C:3DDEH         LINE#         276
  C:3DDEH         LINE#         277
  C:3DE1H         LINE#         278
  C:3DE1H         LINE#         279
  -------         ENDPROC       _SEND_CDEAL
  -------         PROC          _SEND_SDEAL
  D:0021H         SYMBOL        buf
  D:0024H         SYMBOL        n
  -------         DO            
  D:0025H         SYMBOL        data_ram
  D:0026H         SYMBOL        data_8u
  D:0027H         SYMBOL        data_32s
  D:0007H         SYMBOL        i
  D:002BH         SYMBOL        SfrPage_
  -------         ENDDO         
  C:1E7CH         LINE#         287
  C:1E84H         LINE#         288
  C:1E84H         LINE#         291
  C:1E87H         LINE#         293
  C:1E9CH         LINE#         294
  C:1EA5H         LINE#         295
  C:1EB0H         LINE#         296
  C:1EB3H         LINE#         297
  C:1EB9H         LINE#         298
  C:1EBAH         LINE#         299
  C:1ED5H         LINE#         300
  C:1EDEH         LINE#         301
  C:1EE9H         LINE#         302
  C:1EECH         LINE#         303
  C:1EF1H         LINE#         304
  C:1F08H         LINE#         305
  C:1F08H         LINE#         306
  C:1F0BH         LINE#         307
  C:1F0BH         LINE#         308
  C:1F0CH         LINE#         309
  C:1F33H         LINE#         310
  C:1F3CH         LINE#         311
  C:1F55H         LINE#         312
  C:1F55H         LINE#         313
  C:1F55H         LINE#         314
  C:1F69H         LINE#         316
  C:1F69H         LINE#         317
  C:1F6EH         LINE#         318
  C:1F73H         LINE#         319
  C:1F76H         LINE#         320
  C:1F78H         LINE#         322
  C:1F78H         LINE#         323
  C:1F7BH         LINE#         324
  C:1F7BH         LINE#         325
  C:1F98H         LINE#         326
  C:1F99H         LINE#         327
  C:1FAEH         LINE#         328
BL51 BANKED LINKER/LOCATER V6.22                                                      06/27/2018  11:39:01  PAGE 93


  C:1FB1H         LINE#         329
  C:1FB1H         LINE#         330
  C:1FB1H         LINE#         331
  C:1FB4H         LINE#         332
  C:1FBDH         LINE#         334
  C:1FD8H         LINE#         335
  C:1FE1H         LINE#         336
  C:1FF1H         LINE#         337
  C:2002H         LINE#         338
  C:2007H         LINE#         339
  C:200FH         LINE#         340
  C:200FH         LINE#         341
  C:2012H         LINE#         342
  C:202DH         LINE#         343
  C:2036H         LINE#         344
  C:203CH         LINE#         345
  C:2042H         LINE#         346
  C:204AH         LINE#         347
  C:204AH         LINE#         348
  C:204DH         LINE#         349
  C:2068H         LINE#         350
  C:2071H         LINE#         351
  C:2077H         LINE#         352
  C:207DH         LINE#         353
  C:2085H         LINE#         354
  C:2085H         LINE#         355
  C:2088H         LINE#         356
  C:20A3H         LINE#         357
  C:20ACH         LINE#         358
  C:20CAH         LINE#         359
  C:20D5H         LINE#         360
  C:20D8H         LINE#         361
  C:20E3H         LINE#         362
  C:20E3H         LINE#         363
  C:20FEH         LINE#         364
  C:2107H         LINE#         365
  C:2125H         LINE#         366
  C:2130H         LINE#         367
  C:2133H         LINE#         368
  C:213EH         LINE#         369
  C:213EH         LINE#         379
  C:2159H         LINE#         380
  C:2162H         LINE#         381
  C:2172H         LINE#         382
  C:2186H         LINE#         383
  C:218BH         LINE#         384
  C:2193H         LINE#         385
  C:2193H         LINE#         386
  C:2196H         LINE#         387
  C:21B1H         LINE#         388
  C:21BAH         LINE#         389
  C:21CAH         LINE#         390
  C:21DEH         LINE#         391
  C:21E3H         LINE#         392
  C:21EBH         LINE#         393
  C:21EBH         LINE#         394
  C:21EEH         LINE#         395
BL51 BANKED LINKER/LOCATER V6.22                                                      06/27/2018  11:39:01  PAGE 94


  C:2209H         LINE#         396
  C:2212H         LINE#         397
  C:2231H         LINE#         398
  C:2234H         LINE#         400
  C:2234H         LINE#         401
  C:223CH         LINE#         402
  C:223CH         LINE#         403
  C:223CH         LINE#         404
  C:223FH         LINE#         461
  C:225AH         LINE#         462
  C:2263H         LINE#         463
  C:22A1H         LINE#         464
  C:22A1H         LINE#         465
  C:22A4H         LINE#         466
  C:22BFH         LINE#         467
  C:22C8H         LINE#         469
  C:2304H         LINE#         470
  C:2304H         LINE#         471
  C:2307H         LINE#         472
  C:2322H         LINE#         473
  C:232BH         LINE#         474
  C:2342H         LINE#         475
  C:234AH         LINE#         476
  C:234AH         LINE#         477
  C:234DH         LINE#         480
  C:2368H         LINE#         481
  C:2371H         LINE#         482
  C:237CH         LINE#         483
  C:237FH         LINE#         484
  C:2386H         LINE#         485
  C:2389H         LINE#         486
  C:2389H         LINE#         487
  C:23A4H         LINE#         488
  C:23A4H         LINE#         489
  C:23ADH         LINE#         490
  C:23BDH         LINE#         491
  C:23C5H         LINE#         492
  C:23CBH         LINE#         493
  C:23D0H         LINE#         494
  C:23D3H         LINE#         495
  C:23DAH         LINE#         496
  C:23DDH         LINE#         497
  C:240CH         LINE#         498
  C:240FH         LINE#         499
  C:2410H         LINE#         500
  C:242BH         LINE#         501
  C:242BH         LINE#         502
  C:2431H         LINE#         503
  C:2441H         LINE#         504
  C:2449H         LINE#         505
  C:244FH         LINE#         506
  C:245AH         LINE#         507
  C:245DH         LINE#         508
  C:245DH         LINE#         509
  -------         ENDPROC       _SEND_SDEAL
  -------         PROC          _SEND_WDEAL
  D:0021H         SYMBOL        buf
BL51 BANKED LINKER/LOCATER V6.22                                                      06/27/2018  11:39:01  PAGE 95


  D:0024H         SYMBOL        n
  -------         DO            
  D:0025H         SYMBOL        data_x
  D:0027H         SYMBOL        data_y
  D:0029H         SYMBOL        data_t
  -------         ENDDO         
  C:4DF1H         LINE#         517
  C:4DF9H         LINE#         518
  C:4DF9H         LINE#         521
  C:4E11H         LINE#         522
  C:4E1AH         LINE#         523
  C:4E38H         LINE#         524
  C:4E55H         LINE#         525
  C:4E72H         LINE#         526
  C:4E94H         LINE#         527
  C:4E9CH         LINE#         528
  C:4E9EH         LINE#         530
  C:4E9EH         LINE#         531
  C:4E9EH         LINE#         532
  C:4EA0H         LINE#         533
  C:4EBBH         LINE#         534
  C:4EC1H         LINE#         535
  C:4EC4H         LINE#         537
  C:4EC4H         LINE#         538
  C:4EE2H         LINE#         539
  C:4EEDH         LINE#         540
  C:4EF0H         LINE#         541
  C:4EF0H         LINE#         542
  -------         ENDPROC       _SEND_WDEAL
  -------         PROC          _SEND_UDEAL
  D:0021H         SYMBOL        buf
  D:0024H         SYMBOL        n
  C:6688H         LINE#         550
  C:6690H         LINE#         551
  C:6690H         LINE#         552
  C:66A5H         LINE#         553
  C:66A5H         LINE#         555
  C:66ABH         LINE#         556
  C:66AEH         LINE#         557
  C:66B6H         LINE#         558
  C:66B6H         LINE#         560
  C:66B8H         LINE#         561
  C:66D3H         LINE#         562
  C:66D3H         LINE#         563
  C:66D8H         LINE#         564
  C:66DBH         LINE#         565
  C:66E6H         LINE#         566
  C:66E9H         LINE#         567
  C:66E9H         LINE#         569
  C:66ECH         LINE#         570
  -------         ENDPROC       _SEND_UDEAL
  -------         PROC          _SEND_TDEAL
  D:0001H         SYMBOL        buf
  D:0021H         SYMBOL        n
  C:0003H         LINE#         581
  C:0005H         LINE#         582
  C:0005H         LINE#         583
BL51 BANKED LINKER/LOCATER V6.22                                                      06/27/2018  11:39:01  PAGE 96


  C:001AH         LINE#         584
  C:001FH         LINE#         585
  C:0022H         LINE#         586
  C:0022H         LINE#         587
  -------         ENDPROC       _SEND_TDEAL
  -------         ENDMOD        SEND

  -------         MODULE        SENSOR
  C:0000H         SYMBOL        _ICE_DUMMY_
  D:0090H         PUBLIC        P1
  D:00A0H         PUBLIC        P2
  C:7807H         PUBLIC        _SnXFilter
  C:7819H         PUBLIC        _SnYFilter
  D:00E8H         PUBLIC        ADC0CN
  C:5418H         SYMBOL        _GetOffset
  C:7996H         PUBLIC        GetXAng
  C:79A5H         PUBLIC        GetYAng
  C:5FE2H         SYMBOL        _SnFilter
  C:75D2H         PUBLIC        SnXDataInit
  C:75EDH         PUBLIC        SnYDataInit
  C:7C32H         PUBLIC        GetFilterCnt
  C:6550H         SYMBOL        _Sn_DataInit
  C:7C38H         PUBLIC        _SetFilterCnt
  C:78B0H         PUBLIC        Get_McuTemp
  C:7BABH         PUBLIC        GetXOftVal
  C:7BB4H         PUBLIC        GetYOftVal
  X:0BAEH         SYMBOL        filtercnt
  X:0BAFH         PUBLIC        accel_x
  C:576FH         SYMBOL        _GetAngCalcVal
  X:0BCFH         PUBLIC        accel_y
  C:632CH         PUBLIC        Get_McuTempInCelsius
  C:5A8AH         PUBLIC        SnProc
  C:5EDEH         PUBLIC        SnInit
  C:7B99H         PUBLIC        GetXFtVal
  C:7BA2H         PUBLIC        GetYFtVal
  C:7B87H         PUBLIC        AngXCalc
  C:7BCDH         PUBLIC        _GetXOffset
  C:7B90H         PUBLIC        AngYCalc
  C:7BD5H         PUBLIC        _GetYOffset
  C:5623H         SYMBOL        _Ang_Calc
  -------         PROC          _SN_DATAINIT
  D:0021H         SYMBOL        p_sn
  D:0024H         SYMBOL        p_tempcal
  D:0027H         SYMBOL        p_angcal
  C:6550H         LINE#         31
  C:6556H         LINE#         32
  C:6556H         LINE#         33
  C:655CH         LINE#         34
  C:656BH         LINE#         35
  C:6575H         LINE#         36
  C:657EH         LINE#         37
  C:6588H         LINE#         38
  C:65A0H         LINE#         39
  C:65B8H         LINE#         40
  -------         ENDPROC       _SN_DATAINIT
  -------         PROC          _SNFILTER
  D:0021H         SYMBOL        p_sn
BL51 BANKED LINKER/LOCATER V6.22                                                      06/27/2018  11:39:01  PAGE 97


  D:0024H         SYMBOL        val
  D:0026H         SYMBOL        ftcnt
  C:5FE2H         LINE#         49
  C:5FECH         LINE#         50
  C:5FECH         LINE#         51
  C:6005H         LINE#         52
  C:6005H         LINE#         53
  C:6023H         LINE#         55
  C:6041H         LINE#         57
  C:6043H         LINE#         59
  C:604EH         LINE#         60
  -------         ENDPROC       _SNFILTER
  -------         PROC          L?0048
  -------         ENDPROC       L?0048
  -------         PROC          _GETOFFSET
  D:0021H         SYMBOL        p_sn
  D:0024H         SYMBOL        temp
  -------         DO            
  D:0026H         SYMBOL        i
  D:0004H         SYMBOL        offset
  -------         ENDDO         
  C:5418H         LINE#         70
  C:5422H         LINE#         71
  C:5422H         LINE#         75
  C:543DH         LINE#         76
  C:543DH         LINE#         77
  C:546FH         LINE#         78
  C:546FH         LINE#         79
  C:5473H         LINE#         80
  C:54C5H         LINE#         82
  C:54C8H         LINE#         83
  -------         ENDPROC       _GETOFFSET
  -------         PROC          _GETANGCALCVAL
  D:0028H         SYMBOL        p_sn
  D:002BH         SYMBOL        val
  -------         DO            
  D:002DH         SYMBOL        i
  D:0004H         SYMBOL        tmp
  -------         ENDDO         
  C:576FH         LINE#         92
  C:5779H         LINE#         93
  C:5779H         LINE#         97
  C:5794H         LINE#         98
  C:5794H         LINE#         99
  C:57BDH         LINE#         100
  C:57BDH         LINE#         101
  C:57C1H         LINE#         102
  C:5813H         LINE#         103
  C:5813H         LINE#         104
  -------         ENDPROC       _GETANGCALCVAL
  -------         PROC          _ANG_CALC
  D:0021H         SYMBOL        p_sn
  -------         DO            
  D:0024H         SYMBOL        ang
  -------         ENDDO         
  C:5623H         LINE#         113
  C:5629H         LINE#         114
BL51 BANKED LINKER/LOCATER V6.22                                                      06/27/2018  11:39:01  PAGE 98


  C:5629H         LINE#         116
  C:563DH         LINE#         117
  C:5651H         LINE#         118
  C:5662H         LINE#         119
  C:5678H         LINE#         120
  C:5689H         LINE#         122
  C:5689H         LINE#         123
  C:569CH         LINE#         124
  C:56BAH         LINE#         125
  C:56C9H         LINE#         126
  C:56C9H         LINE#         127
  -------         ENDPROC       _ANG_CALC
  -------         PROC          SNXDATAINIT
  C:75D2H         LINE#         133
  C:75D2H         LINE#         134
  C:75D2H         LINE#         135
  -------         ENDPROC       SNXDATAINIT
  -------         PROC          SNYDATAINIT
  C:75EDH         LINE#         137
  C:75EDH         LINE#         138
  C:75EDH         LINE#         139
  -------         ENDPROC       SNYDATAINIT
  -------         PROC          _SNXFILTER
  D:0006H         SYMBOL        val
  D:0082H         SYMBOL        ftcnt
  C:7807H         LINE#         141
  C:7809H         LINE#         142
  C:7809H         LINE#         143
  -------         ENDPROC       _SNXFILTER
  -------         PROC          _SNYFILTER
  D:0006H         SYMBOL        val
  D:0082H         SYMBOL        ftcnt
  C:7819H         LINE#         145
  C:781BH         LINE#         146
  C:781BH         LINE#         147
  -------         ENDPROC       _SNYFILTER
  -------         PROC          _GETXOFFSET
  D:0004H         SYMBOL        temp
  C:7BCDH         LINE#         149
  C:7BCDH         LINE#         150
  C:7BCDH         LINE#         151
  C:7BD4H         LINE#         152
  -------         ENDPROC       _GETXOFFSET
  -------         PROC          _GETYOFFSET
  D:0004H         SYMBOL        temp
  C:7BD5H         LINE#         153
  C:7BD5H         LINE#         154
  C:7BD5H         LINE#         155
  C:7BDCH         LINE#         156
  -------         ENDPROC       _GETYOFFSET
  -------         PROC          ANGXCALC
  C:7B87H         LINE#         157
  C:7B87H         LINE#         158
  C:7B87H         LINE#         159
  -------         ENDPROC       ANGXCALC
  -------         PROC          ANGYCALC
  C:7B90H         LINE#         161
BL51 BANKED LINKER/LOCATER V6.22                                                      06/27/2018  11:39:01  PAGE 99


  C:7B90H         LINE#         162
  C:7B90H         LINE#         163
  -------         ENDPROC       ANGYCALC
  -------         PROC          SNINIT
  C:5EDEH         LINE#         172
  C:5EDEH         LINE#         173
  C:5EDEH         LINE#         174
  C:5EE1H         LINE#         175
  C:5EE6H         LINE#         176
  C:5EF4H         LINE#         177
  C:5F00H         LINE#         178
  C:5F0CH         LINE#         179
  C:5F18H         LINE#         180
  C:5F24H         LINE#         182
  C:5F32H         LINE#         183
  C:5F3EH         LINE#         184
  C:5F4AH         LINE#         185
  C:5F56H         LINE#         186
  -------         ENDPROC       SNINIT
  -------         PROC          SNPROC
  C:5A8AH         LINE#         196
  C:5A8AH         LINE#         197
  C:5A8AH         LINE#         198
  C:5A8AH         LINE#         199
  C:5A92H         LINE#         201
  C:5A96H         LINE#         203
  C:5A9FH         LINE#         204
  C:5A9FH         LINE#         205
  C:5A9FH         LINE#         206
  C:5AAAH         LINE#         207
  C:5AB1H         LINE#         208
  C:5AD3H         LINE#         210
  C:5AD6H         LINE#         211
  C:5AD8H         LINE#         213
  C:5AD8H         LINE#         214
  C:5AE3H         LINE#         215
  C:5AEAH         LINE#         216
  C:5B0CH         LINE#         218
  C:5B18H         LINE#         219
  C:5B18H         LINE#         220
  C:5B18H         LINE#         221
  C:5B18H         LINE#         222
  C:5B1BH         LINE#         223
  C:5B1BH         LINE#         224
  -------         ENDPROC       SNPROC
  -------         PROC          GETFILTERCNT
  C:7C32H         LINE#         233
  C:7C32H         LINE#         234
  C:7C32H         LINE#         235
  C:7C37H         LINE#         236
  -------         ENDPROC       GETFILTERCNT
  -------         PROC          _SETFILTERCNT
  D:0007H         SYMBOL        cnt
  C:7C38H         LINE#         244
  C:7C38H         LINE#         245
  C:7C38H         LINE#         246
  C:7C3DH         LINE#         247
BL51 BANKED LINKER/LOCATER V6.22                                                      06/27/2018  11:39:01  PAGE 100


  -------         ENDPROC       _SETFILTERCNT
  -------         PROC          L?0047
  -------         ENDPROC       L?0047
  -------         PROC          GET_MCUTEMP
  C:78B0H         LINE#         256
  C:78B0H         LINE#         257
  C:78B0H         LINE#         261
  C:78B3H         LINE#         262
  -------         ENDPROC       GET_MCUTEMP
  -------         PROC          GETXFTVAL
  C:7B99H         LINE#         271
  C:7B99H         LINE#         272
  C:7B99H         LINE#         273
  C:7BA1H         LINE#         274
  -------         ENDPROC       GETXFTVAL
  -------         PROC          GETYFTVAL
  C:7BA2H         LINE#         283
  C:7BA2H         LINE#         284
  C:7BA2H         LINE#         285
  C:7BAAH         LINE#         286
  -------         ENDPROC       GETYFTVAL
  -------         PROC          GETXOFTVAL
  C:7BABH         LINE#         295
  C:7BABH         LINE#         296
  C:7BABH         LINE#         297
  C:7BB3H         LINE#         298
  -------         ENDPROC       GETXOFTVAL
  -------         PROC          GETYOFTVAL
  C:7BB4H         LINE#         307
  C:7BB4H         LINE#         308
  C:7BB4H         LINE#         309
  C:7BBCH         LINE#         310
  -------         ENDPROC       GETYOFTVAL
  -------         PROC          GETXANG
  C:7996H         LINE#         319
  C:7996H         LINE#         320
  C:7996H         LINE#         321
  C:79A4H         LINE#         322
  -------         ENDPROC       GETXANG
  -------         PROC          GETYANG
  C:79A5H         LINE#         331
  C:79A5H         LINE#         332
  C:79A5H         LINE#         333
  C:79B3H         LINE#         334
  -------         ENDPROC       GETYANG
  -------         PROC          GET_MCUTEMPINCELSIUS
  C:632CH         LINE#         336
  C:632CH         LINE#         337
  C:632CH         LINE#         344
  C:639CH         LINE#         345
  -------         ENDPROC       GET_MCUTEMPINCELSIUS
  -------         ENDMOD        SENSOR

  -------         MODULE        SUB
  C:0000H         SYMBOL        _ICE_DUMMY_
  C:3F41H         PUBLIC        _Sub_Int32s2Str
  C:366AH         PUBLIC        _Sub_Str2Int32s
BL51 BANKED LINKER/LOCATER V6.22                                                      06/27/2018  11:39:01  PAGE 101


  D:0090H         PUBLIC        P1
  C:750FH         PUBLIC        _Sub_Int16s2Str
  C:691AH         PUBLIC        _Sub_Str2Int16s
  D:00A0H         PUBLIC        P2
  C:54C9H         PUBLIC        _Sub_Int16u2Str
  C:5353H         PUBLIC        _Sub_Str2Int16u
  C:7723H         PUBLIC        _Comm_PutInt8u
  C:7B17H         PUBLIC        Sub_SysRst
  C:7A15H         PUBLIC        Comm_PutNewLineSta
  D:00A7H         PUBLIC        SFRPAGE
  C:763BH         PUBLIC        Sub_SendSysNum
  C:72E1H         PUBLIC        _Sub_SendMcuT
  C:66EDH         PUBLIC        Sub_SendTCalTest
  C:6D66H         PUBLIC        _Sub_SendAdcTXY
  C:77E1H         PUBLIC        _Comm_PutInt32s
  C:726BH         PUBLIC        _Comm_PutInt16s
  C:7183H         PUBLIC        Sub_SendAngXYP
  C:766CH         PUBLIC        _Comm_PutInt16u
  C:527FH         PUBLIC        _Sub_SendTempCal
  C:79ECH         PUBLIC        Sub_SendErr
  C:7573H         PUBLIC        _Sub_Str2Int8s
  C:79DEH         PUBLIC        Sub_SendOk
  C:7594H         PUBLIC        _Sub_Int8u2Str
  C:7060H         PUBLIC        _Sub_Str2Int8u
  C:65B9H         PUBLIC        _Sub_BufBubble32s
  C:6479H         PUBLIC        _Sub_BufBubble16s
  C:61D4H         PUBLIC        _Sub_BufBubble16u
  C:640CH         PUBLIC        Sub_SendPrmtAll
  C:6BFDH         PUBLIC        _Sub_16SBufSwitch
  C:747FH         PUBLIC        Sub_SendAngXY
  D:00EFH         PUBLIC        RSTSRC
  C:79FAH         PUBLIC        Sub_SendSoftVer
  C:60E1H         PUBLIC        _Sub_SendMcuTempCal
  C:69CAH         PUBLIC        _Sub_SBufSwitch
  C:6C49H         PUBLIC        _Sub_UBufSwitch
  -------         PROC          _COMM_PUTINT32S
  D:0004H         SYMBOL        val
  C:77E1H         LINE#         26
  C:77E1H         LINE#         27
  C:77E1H         LINE#         28
  C:77EAH         LINE#         29
  -------         ENDPROC       _COMM_PUTINT32S
  C:7251H         SYMBOL        L?0094
  -------         PROC          L?0093
  -------         ENDPROC       L?0093
  C:7251H         SYMBOL        L?0094
  -------         PROC          _COMM_PUTINT16S
  D:0004H         SYMBOL        val
  C:726BH         LINE#         39
  C:726FH         LINE#         40
  C:726FH         LINE#         41
  C:7278H         LINE#         42
  -------         ENDPROC       _COMM_PUTINT16S
  -------         PROC          _COMM_PUTINT16U
  D:0004H         SYMBOL        val
  C:766CH         LINE#         51
  C:7670H         LINE#         52
BL51 BANKED LINKER/LOCATER V6.22                                                      06/27/2018  11:39:01  PAGE 102


  C:7670H         LINE#         53
  C:7679H         LINE#         54
  -------         ENDPROC       _COMM_PUTINT16U
  -------         PROC          _COMM_PUTINT8U
  D:0005H         SYMBOL        val
  C:7723H         LINE#         63
  C:7725H         LINE#         64
  C:7725H         LINE#         65
  C:772EH         LINE#         66
  -------         ENDPROC       _COMM_PUTINT8U
  -------         PROC          COMM_PUTNEWLINESTA
  C:7A15H         LINE#         76
  C:7A15H         LINE#         77
  C:7A15H         LINE#         78
  C:7A1AH         LINE#         79
  C:7A1FH         LINE#         80
  -------         ENDPROC       COMM_PUTNEWLINESTA
  -------         PROC          SUB_SENDOK
  -------         DO            
  D:0001H         SYMBOL        str
  -------         ENDDO         
  C:79DEH         LINE#         89
  C:79DEH         LINE#         90
  C:79DEH         LINE#         91
  C:79E4H         LINE#         92
  C:79E9H         LINE#         93
  -------         ENDPROC       SUB_SENDOK
  -------         PROC          SUB_SENDERR
  -------         DO            
  D:0001H         SYMBOL        str
  -------         ENDDO         
  C:79ECH         LINE#         97
  C:79ECH         LINE#         98
  C:79F2H         LINE#         101
  C:79F7H         LINE#         102
  -------         ENDPROC       SUB_SENDERR
  -------         PROC          SUB_SENDANGXY
  C:747FH         LINE#         106
  C:747FH         LINE#         107
  C:747FH         LINE#         108
  C:748AH         LINE#         109
  C:7490H         LINE#         110
  C:749BH         LINE#         111
  C:74A1H         LINE#         112
  -------         ENDPROC       SUB_SENDANGXY
  -------         PROC          SUB_SENDANGXYP
  C:7183H         LINE#         115
  C:7183H         LINE#         116
  C:7183H         LINE#         117
  C:718EH         LINE#         118
  C:7194H         LINE#         120
  C:719FH         LINE#         121
  C:71A5H         LINE#         123
  C:71B0H         LINE#         124
  C:71B6H         LINE#         125
  -------         ENDPROC       SUB_SENDANGXYP
  -------         PROC          _SUB_SENDADCTXY
BL51 BANKED LINKER/LOCATER V6.22                                                      06/27/2018  11:39:01  PAGE 103


  D:0033H         SYMBOL        temp
  D:0035H         SYMBOL        x
  D:0037H         SYMBOL        y
  C:6D66H         LINE#         129
  C:6D72H         LINE#         130
  C:6D72H         LINE#         131
  C:6D84H         LINE#         132
  C:6D96H         LINE#         133
  C:6DA8H         LINE#         134
  -------         ENDPROC       _SUB_SENDADCTXY
  -------         PROC          _SUB_SENDMCUT
  D:0030H         SYMBOL        temp
  D:0032H         SYMBOL        tadc
  C:72E1H         LINE#         136
  C:72E9H         LINE#         137
  C:72E9H         LINE#         138
  C:72FBH         LINE#         139
  C:730DH         LINE#         140
  -------         ENDPROC       _SUB_SENDMCUT
  -------         PROC          SUB_SENDPRMTALL
  C:640CH         LINE#         144
  C:640CH         LINE#         145
  C:640CH         LINE#         146
  C:641DH         LINE#         147
  C:642EH         LINE#         149
  C:6439H         LINE#         150
  C:6444H         LINE#         152
  C:6455H         LINE#         154
  C:6460H         LINE#         155
  C:646BH         LINE#         157
  C:6476H         LINE#         159
  -------         ENDPROC       SUB_SENDPRMTALL
  -------         PROC          _SUB_SENDTEMPCAL
  D:0026H         SYMBOL        i
  C:527FH         LINE#         183
  C:5281H         LINE#         184
  C:5281H         LINE#         185
  C:5291H         LINE#         186
  C:529EH         LINE#         188
  C:52B1H         LINE#         189
  C:52C4H         LINE#         191
  C:52DFH         LINE#         192
  C:530AH         LINE#         193
  C:5325H         LINE#         194
  C:5350H         LINE#         196
  -------         ENDPROC       _SUB_SENDTEMPCAL
  -------         PROC          _SUB_SENDMCUTEMPCAL
  D:0026H         SYMBOL        i
  C:60E1H         LINE#         199
  C:60E3H         LINE#         200
  C:60E3H         LINE#         201
  C:60F3H         LINE#         202
  C:6100H         LINE#         204
  C:6113H         LINE#         207
  C:612EH         LINE#         208
  C:6159H         LINE#         211
  -------         ENDPROC       _SUB_SENDMCUTEMPCAL
BL51 BANKED LINKER/LOCATER V6.22                                                      06/27/2018  11:39:01  PAGE 104


  -------         PROC          SUB_SENDSOFTVER
  C:79FAH         LINE#         232
  C:79FAH         LINE#         233
  C:79FAH         LINE#         234
  C:7A05H         LINE#         235
  -------         ENDPROC       SUB_SENDSOFTVER
  -------         PROC          SUB_SENDSYSNUM
  C:763BH         LINE#         239
  C:763BH         LINE#         240
  C:763BH         LINE#         241
  C:7646H         LINE#         242
  C:7651H         LINE#         243
  -------         ENDPROC       SUB_SENDSYSNUM
  -------         PROC          SUB_SENDTCALTEST
  -------         DO            
  D:0022H         SYMBOL        TempX
  D:0024H         SYMBOL        TempY
  -------         ENDDO         
  C:66EDH         LINE#         247
  C:66EDH         LINE#         248
  C:66EDH         LINE#         252
  C:6703H         LINE#         253
  C:6719H         LINE#         255
  C:6729H         LINE#         256
  C:6735H         LINE#         257
  C:673CH         LINE#         258
  C:673FH         LINE#         261
  C:674DH         LINE#         262
  -------         ENDPROC       SUB_SENDTCALTEST
  -------         PROC          _SUB_STR2INT32S
  D:002CH         SYMBOL        val
  D:002FH         SYMBOL        str
  -------         DO            
  D:0032H         SYMBOL        temp
  -------         ENDDO         
  C:366AH         LINE#         270
  C:3670H         LINE#         271
  C:3670H         LINE#         274
  C:368BH         LINE#         275
  C:36A0H         LINE#         276
  C:36ADH         LINE#         277
  C:36C2H         LINE#         278
  C:36D7H         LINE#         279
  C:36ECH         LINE#         280
  C:37E4H         LINE#         281
  C:37F0H         LINE#         282
  C:37F8H         LINE#         283
  C:37FAH         LINE#         284
  C:37FAH         LINE#         285
  C:3806H         LINE#         286
  C:381AH         LINE#         287
  C:381DH         LINE#         288
  C:381DH         LINE#         289
  C:381FH         LINE#         290
  -------         ENDPROC       _SUB_STR2INT32S
  -------         PROC          _SUB_STR2INT16S
  D:002BH         SYMBOL        val
BL51 BANKED LINKER/LOCATER V6.22                                                      06/27/2018  11:39:01  PAGE 105


  D:002EH         SYMBOL        str
  -------         DO            
  D:0031H         SYMBOL        temp
  -------         ENDDO         
  C:691AH         LINE#         292
  C:6920H         LINE#         293
  C:6920H         LINE#         294
  C:693DH         LINE#         296
  C:694AH         LINE#         297
  C:6955H         LINE#         298
  C:6957H         LINE#         299
  C:6957H         LINE#         300
  C:695BH         LINE#         301
  C:696EH         LINE#         302
  C:6971H         LINE#         303
  C:6971H         LINE#         304
  C:6973H         LINE#         305
  -------         ENDPROC       _SUB_STR2INT16S
  -------         PROC          _SUB_STR2INT16U
  D:0033H         SYMBOL        val
  D:0036H         SYMBOL        str
  -------         DO            
  D:0007H         SYMBOL        i
  -------         ENDDO         
  C:5353H         LINE#         307
  C:5359H         LINE#         308
  C:5359H         LINE#         311
  C:535BH         LINE#         312
  C:5375H         LINE#         313
  C:5378H         LINE#         314
  C:537CH         LINE#         315
  C:540FH         LINE#         316
  C:5411H         LINE#         317
  -------         ENDPROC       _SUB_STR2INT16U
  -------         PROC          _SUB_STR2INT8U
  D:0001H         SYMBOL        str
  -------         DO            
  D:0007H         SYMBOL        val
  -------         ENDDO         
  C:7060H         LINE#         319
  C:7060H         LINE#         320
  C:7060H         LINE#         322
  C:7072H         LINE#         323
  C:7087H         LINE#         324
  C:709BH         LINE#         325
  C:709BH         LINE#         326
  -------         ENDPROC       _SUB_STR2INT8U
  -------         PROC          _SUB_STR2INT8S
  D:002CH         SYMBOL        str
  -------         DO            
  D:0007H         SYMBOL        temp
  -------         ENDDO         
  C:7573H         LINE#         327
  C:7579H         LINE#         328
  C:7579H         LINE#         330
  C:7583H         LINE#         332
  C:758FH         LINE#         333
BL51 BANKED LINKER/LOCATER V6.22                                                      06/27/2018  11:39:01  PAGE 106


  C:758FH         LINE#         334
  C:7593H         LINE#         335
  C:7593H         LINE#         336
  C:7593H         LINE#         337
  -------         ENDPROC       _SUB_STR2INT8S
  -------         PROC          _SUB_INT32S2STR
  D:002CH         SYMBOL        s
  D:002FH         SYMBOL        val
  C:3F41H         LINE#         339
  C:3F4FH         LINE#         340
  C:3F4FH         LINE#         341
  C:3F53H         LINE#         342
  C:3F53H         LINE#         343
  C:3F5EH         LINE#         344
  C:3F60H         LINE#         345
  C:3F62H         LINE#         347
  C:3F62H         LINE#         348
  C:3F6DH         LINE#         349
  C:3F6DH         LINE#         350
  C:3F9BH         LINE#         352
  C:3FBCH         LINE#         353
  C:3FDEH         LINE#         354
  C:3FF7H         LINE#         355
  C:4019H         LINE#         356
  C:4027H         LINE#         357
  C:4047H         LINE#         358
  C:4068H         LINE#         359
  C:4080H         LINE#         360
  -------         ENDPROC       _SUB_INT32S2STR
  -------         PROC          _SUB_INT16S2STR
  D:0001H         SYMBOL        s
  D:0004H         SYMBOL        val
  C:750FH         LINE#         363
  C:750FH         LINE#         364
  C:750FH         LINE#         365
  C:7517H         LINE#         366
  C:751EH         LINE#         367
  C:7520H         LINE#         368
  C:7522H         LINE#         370
  C:7527H         LINE#         371
  C:7527H         LINE#         372
  -------         ENDPROC       _SUB_INT16S2STR
  -------         PROC          _SUB_INT16U2STR
  D:0039H         SYMBOL        s
  D:003CH         SYMBOL        val
  C:54C9H         LINE#         375
  C:54D3H         LINE#         376
  C:54D3H         LINE#         377
  C:54E4H         LINE#         378
  C:54F3H         LINE#         379
  C:550DH         LINE#         380
  C:551CH         LINE#         381
  C:5536H         LINE#         382
  C:5545H         LINE#         383
  C:555FH         LINE#         384
  -------         ENDPROC       _SUB_INT16U2STR
  -------         PROC          _SUB_INT8U2STR
BL51 BANKED LINKER/LOCATER V6.22                                                      06/27/2018  11:39:01  PAGE 107


  D:0001H         SYMBOL        s
  D:0005H         SYMBOL        val
  C:7594H         LINE#         387
  C:7594H         LINE#         388
  C:7594H         LINE#         389
  C:759BH         LINE#         390
  C:75A5H         LINE#         391
  -------         ENDPROC       _SUB_INT8U2STR
  -------         PROC          _SUB_SBUFSWITCH
  D:002CH         SYMBOL        buf
  D:002FH         SYMBOL        i
  D:0030H         SYMBOL        j
  -------         DO            
  D:0031H         SYMBOL        temp
  -------         ENDDO         
  C:69CAH         LINE#         401
  C:69D2H         LINE#         402
  C:69D2H         LINE#         405
  C:69E8H         LINE#         406
  C:6A04H         LINE#         407
  -------         ENDPROC       _SUB_SBUFSWITCH
  -------         PROC          _SUB_16SBUFSWITCH
  D:003DH         SYMBOL        buf
  D:0005H         SYMBOL        i
  D:0041H         SYMBOL        j
  -------         DO            
  D:0042H         SYMBOL        temp
  -------         ENDDO         
  C:6BFDH         LINE#         411
  C:6C03H         LINE#         412
  C:6C03H         LINE#         415
  C:6C15H         LINE#         416
  C:6C36H         LINE#         417
  -------         ENDPROC       _SUB_16SBUFSWITCH
  -------         PROC          _SUB_UBUFSWITCH
  D:003DH         SYMBOL        buf
  D:0005H         SYMBOL        i
  D:0041H         SYMBOL        j
  -------         DO            
  D:0042H         SYMBOL        temp
  -------         ENDDO         
  C:6C49H         LINE#         421
  C:6C4FH         LINE#         422
  C:6C4FH         LINE#         425
  C:6C61H         LINE#         426
  C:6C82H         LINE#         427
  -------         ENDPROC       _SUB_UBUFSWITCH
  -------         PROC          _SUB_BUFBUBBLE32S
  D:0023H         SYMBOL        id
  D:0026H         SYMBOL        x
  D:0029H         SYMBOL        n
  -------         DO            
  D:002AH         SYMBOL        i
  D:002BH         SYMBOL        j
  -------         ENDDO         
  C:65B9H         LINE#         430
  C:65BFH         LINE#         431
BL51 BANKED LINKER/LOCATER V6.22                                                      06/27/2018  11:39:01  PAGE 108


  C:65BFH         LINE#         434
  C:65C9H         LINE#         435
  C:65D5H         LINE#         436
  C:65FDH         LINE#         437
  C:660BH         LINE#         438
  C:6619H         LINE#         439
  C:6619H         LINE#         440
  C:661DH         LINE#         441
  C:6621H         LINE#         442
  -------         ENDPROC       _SUB_BUFBUBBLE32S
  -------         PROC          _SUB_BUFBUBBLE16S
  D:0025H         SYMBOL        id
  D:0028H         SYMBOL        x
  D:002BH         SYMBOL        n
  -------         DO            
  D:002CH         SYMBOL        i
  D:002DH         SYMBOL        j
  -------         ENDDO         
  C:6479H         LINE#         444
  C:647FH         LINE#         445
  C:647FH         LINE#         448
  C:6489H         LINE#         449
  C:6495H         LINE#         450
  C:64C7H         LINE#         451
  C:64CFH         LINE#         452
  C:64DDH         LINE#         453
  C:64DDH         LINE#         454
  C:64E1H         LINE#         455
  C:64E5H         LINE#         456
  -------         ENDPROC       _SUB_BUFBUBBLE16S
  -------         PROC          _SUB_BUFBUBBLE16U
  D:0031H         SYMBOL        id
  D:0034H         SYMBOL        x
  D:0037H         SYMBOL        y
  D:003AH         SYMBOL        n
  -------         DO            
  D:003BH         SYMBOL        i
  D:003CH         SYMBOL        j
  -------         ENDDO         
  C:61D4H         LINE#         461
  C:61DAH         LINE#         462
  C:61DAH         LINE#         465
  C:61E4H         LINE#         466
  C:61F0H         LINE#         467
  C:621CH         LINE#         468
  C:6224H         LINE#         469
  C:6232H         LINE#         470
  C:6240H         LINE#         471
  C:6240H         LINE#         472
  C:6244H         LINE#         473
  C:6248H         LINE#         474
  -------         ENDPROC       _SUB_BUFBUBBLE16U
  -------         PROC          SUB_SYSRST
  -------         DO            
  D:0007H         SYMBOL        SfrPage_
  -------         ENDDO         
  C:7B17H         LINE#         477
BL51 BANKED LINKER/LOCATER V6.22                                                      06/27/2018  11:39:01  PAGE 109


  C:7B17H         LINE#         478
  C:7B19H         LINE#         481
  C:7B1CH         LINE#         482
  C:7B1FH         LINE#         483
  C:7B21H         LINE#         484
  -------         ENDPROC       SUB_SYSRST
  -------         ENDMOD        SUB

  -------         MODULE        TIMER
  C:0000H         SYMBOL        _ICE_DUMMY_
  D:0090H         PUBLIC        P1
  D:0018H         SYMBOL        MainTime4En
  D:00A0H         PUBLIC        P2
  C:6F33H         PUBLIC        Timer2_ISR
  D:00A7H         PUBLIC        SFRPAGE
  C:709CH         PUBLIC        Timer2_TaskInIsr
  B:00C8H.7       PUBLIC        TF2H
  D:00CCH         PUBLIC        TMR2
  C:6EF6H         PUBLIC        Timer2_Init
  D:00C8H         PUBLIC        TMR2CN
  D:00CAH         PUBLIC        TMR2RL
  B:00A8H.5       PUBLIC        ET2
  B:00C8H.2       PUBLIC        TR2
  C:782BH         PUBLIC        Timer2_TaskInMain
  D:008EH         PUBLIC        CKCON
  X:0CA5H         PUBLIC        MainTime4Cnt
  -------         PROC          TIMER2_INIT
  -------         DO            
  D:0007H         SYMBOL        SfrPage_
  -------         ENDDO         
  C:6EF6H         LINE#         26
  C:6EF6H         LINE#         27
  C:6EF6H         LINE#         28
  C:6EF8H         LINE#         29
  C:6EFBH         LINE#         30
  C:6EFDH         LINE#         31
  C:6F00H         LINE#         32
  C:6F06H         LINE#         33
  C:6F0CH         LINE#         34
  C:6F0EH         LINE#         35
  C:6F10H         LINE#         36
  C:6F12H         LINE#         37
  C:6F32H         LINE#         38
  -------         ENDPROC       TIMER2_INIT
  -------         PROC          TIMER2_ISR
  C:6F33H         LINE#         46
  C:6F50H         LINE#         48
  C:6F52H         LINE#         49
  C:6F55H         LINE#         50
  -------         ENDPROC       TIMER2_ISR
  -------         PROC          TIMER2_TASKINISR
  C:709CH         LINE#         68
  C:709CH         LINE#         69
  C:709CH         LINE#         70
  C:709FH         LINE#         71
  C:70ADH         LINE#         72
  C:70B4H         LINE#         73
BL51 BANKED LINKER/LOCATER V6.22                                                      06/27/2018  11:39:01  PAGE 110


  C:70B4H         LINE#         74
  C:70D4H         LINE#         75
  C:70D7H         LINE#         77
  C:70D7H         LINE#         78
  -------         ENDPROC       TIMER2_TASKINISR
  -------         PROC          TIMER2_TASKINMAIN
  C:782BH         LINE#         86
  C:782BH         LINE#         87
  C:782BH         LINE#         88
  C:7830H         LINE#         89
  C:7833H         LINE#         90
  C:7839H         LINE#         91
  C:783CH         LINE#         93
  C:783CH         LINE#         94
  -------         ENDPROC       TIMER2_TASKINMAIN
  -------         ENDMOD        TIMER

  -------         MODULE        ?C?FPADD
  C:0055H         PUBLIC        ?C?FPADD
  C:0051H         PUBLIC        ?C?FPSUB
  -------         ENDMOD        ?C?FPADD

  -------         MODULE        ?C?FPMUL
  C:0146H         PUBLIC        ?C?FPMUL
  -------         ENDMOD        ?C?FPMUL

  -------         MODULE        ?C?FPDIV
  C:024FH         PUBLIC        ?C?FPDIV
  -------         ENDMOD        ?C?FPDIV

  -------         MODULE        ?C?FPCMP
  C:02EEH         PUBLIC        ?C?FPCMP
  C:02ECH         PUBLIC        ?C?FPCMP3
  -------         ENDMOD        ?C?FPCMP

  -------         MODULE        ?C?FCAST
  C:0363H         PUBLIC        ?C?FCASTC
  C:035EH         PUBLIC        ?C?FCASTI
  C:0359H         PUBLIC        ?C?FCASTL
  -------         ENDMOD        ?C?FCAST

  -------         MODULE        ?C?CASTF
  C:0397H         PUBLIC        ?C?CASTF
  -------         ENDMOD        ?C?CASTF

  -------         MODULE        SQRT
  C:557DH         PUBLIC        _SQRT
  -------         ENDMOD        SQRT

  -------         MODULE        SIN
  C:39ECH         PUBLIC        _COS
  C:3A02H         PUBLIC        _SIN
  C:3A34H         PUBLIC        _TAN
  -------         ENDMOD        SIN

  -------         MODULE        ATAN
  C:4472H         PUBLIC        _ATAN
BL51 BANKED LINKER/LOCATER V6.22                                                      06/27/2018  11:39:01  PAGE 111


  -------         ENDMOD        ATAN

  -------         MODULE        ASIN
  C:70D8H         PUBLIC        _ASIN
  -------         ENDMOD        ASIN

  -------         MODULE        ?C?CLDPTR
  C:0465H         PUBLIC        ?C?CLDPTR
  -------         ENDMOD        ?C?CLDPTR

  -------         MODULE        ?C?CLDOPTR
  C:047EH         PUBLIC        ?C?CLDOPTR
  -------         ENDMOD        ?C?CLDOPTR

  -------         MODULE        ?C?CILDPTR
  C:04ABH         PUBLIC        ?C?CILDPTR
  -------         ENDMOD        ?C?CILDPTR

  -------         MODULE        ?C?CILDOPTR
  C:04CDH         PUBLIC        ?C?CILDOPTR
  -------         ENDMOD        ?C?CILDOPTR

  -------         MODULE        ?C?CSTPTR
  C:0500H         PUBLIC        ?C?CSTPTR
  -------         ENDMOD        ?C?CSTPTR

  -------         MODULE        ?C?CSTOPTR
  C:0512H         PUBLIC        ?C?CSTOPTR
  -------         ENDMOD        ?C?CSTOPTR

  -------         MODULE        ?C?IMUL
  C:0534H         PUBLIC        ?C?IMUL
  -------         ENDMOD        ?C?IMUL

  -------         MODULE        ?C?UIDIV
  C:0546H         PUBLIC        ?C?UIDIV
  -------         ENDMOD        ?C?UIDIV

  -------         MODULE        ?C?SIDIV
  C:059BH         PUBLIC        ?C?SIDIV
  -------         ENDMOD        ?C?SIDIV

  -------         MODULE        ?C?IILDX
  C:05D1H         PUBLIC        ?C?IILDX
  -------         ENDMOD        ?C?IILDX

  -------         MODULE        ?C?ILDPTR
  C:05E7H         PUBLIC        ?C?ILDPTR
  -------         ENDMOD        ?C?ILDPTR

  -------         MODULE        ?C?ILDOPTR
  C:0612H         PUBLIC        ?C?ILDOPTR
  -------         ENDMOD        ?C?ILDOPTR

  -------         MODULE        ?C?IILDPTR
  C:064AH         PUBLIC        ?C?IILDPTR
  -------         ENDMOD        ?C?IILDPTR
BL51 BANKED LINKER/LOCATER V6.22                                                      06/27/2018  11:39:01  PAGE 112



  -------         MODULE        ?C?IILDOPTR
  C:0682H         PUBLIC        ?C?IILDOPTR
  -------         ENDMOD        ?C?IILDOPTR

  -------         MODULE        ?C?ISTPTR
  C:06CFH         PUBLIC        ?C?ISTPTR
  -------         ENDMOD        ?C?ISTPTR

  -------         MODULE        ?C?ISTOPTR
  C:06EEH         PUBLIC        ?C?ISTOPTR
  -------         ENDMOD        ?C?ISTOPTR

  -------         MODULE        ?C?LMUL
  C:071BH         PUBLIC        ?C?LMUL
  -------         ENDMOD        ?C?LMUL

  -------         MODULE        ?C?ULDIV
  C:07A6H         PUBLIC        ?C?ULDIV
  -------         ENDMOD        ?C?ULDIV

  -------         MODULE        ?C?SLDIV
  C:6DEFH         PUBLIC        ?C?SLDIV
  -------         ENDMOD        ?C?SLDIV

  -------         MODULE        ?C?LNEG
  C:0838H         PUBLIC        ?C?LNEG
  -------         ENDMOD        ?C?LNEG

  -------         MODULE        ?C?SLCMP
  C:0846H         PUBLIC        ?C?SLCMP
  -------         ENDMOD        ?C?SLCMP

  -------         MODULE        ?C?ULCMP
  C:085CH         PUBLIC        ?C?ULCMP
  -------         ENDMOD        ?C?ULCMP

  -------         MODULE        ?C?ULSHR
  C:086DH         PUBLIC        ?C?ULSHR
  -------         ENDMOD        ?C?ULSHR

  -------         MODULE        ?C?LSHL
  C:0880H         PUBLIC        ?C?LSHL
  -------         ENDMOD        ?C?LSHL

  -------         MODULE        ?C?LLDPTR
  C:0893H         PUBLIC        ?C?LLDPTR
  -------         ENDMOD        ?C?LLDPTR

  -------         MODULE        ?C?LLDOPTR
  C:08B3H         PUBLIC        ?C?LLDOPTR
  -------         ENDMOD        ?C?LLDOPTR

  -------         MODULE        ?C?LSTPTR
  C:08E3H         PUBLIC        ?C?LSTPTR
  -------         ENDMOD        ?C?LSTPTR

BL51 BANKED LINKER/LOCATER V6.22                                                      06/27/2018  11:39:01  PAGE 113


  -------         MODULE        ?C?LSTOPTR
  C:08FDH         PUBLIC        ?C?LSTOPTR
  -------         ENDMOD        ?C?LSTOPTR

  -------         MODULE        ?C?LLDCODE
  C:0921H         PUBLIC        ?C?LLDCODE
  -------         ENDMOD        ?C?LLDCODE

  -------         MODULE        ?C?LLDCODE0
  C:0931H         PUBLIC        ?C?LLDCODE0
  -------         ENDMOD        ?C?LLDCODE0

  -------         MODULE        ?C?LLDOPTR0
  C:0941H         PUBLIC        ?C?LLDOPTR0
  -------         ENDMOD        ?C?LLDOPTR0

  -------         MODULE        ?C?LSTXDATA
  C:0971H         PUBLIC        ?C?LSTXDATA
  -------         ENDMOD        ?C?LSTXDATA

  -------         MODULE        ?C?LSTKXDATA
  C:097DH         PUBLIC        ?C?LSTKXDATA
  -------         ENDMOD        ?C?LSTKXDATA

  -------         MODULE        ?C?LSTKOPTR
  C:09AEH         PUBLIC        ?C?LSTKOPTR
  -------         ENDMOD        ?C?LSTKOPTR

  -------         MODULE        ?C?OFFXADD
  C:09D2H         PUBLIC        ?C?OFFXADD
  -------         ENDMOD        ?C?OFFXADD

  -------         MODULE        ?C?PLDOPTR
  C:09DEH         PUBLIC        ?C?PLDOPTR
  -------         ENDMOD        ?C?PLDOPTR

  -------         MODULE        ?C?PLDIOPTR
  C:0A0EH         PUBLIC        ?C?PLDIOPTR
  -------         ENDMOD        ?C?PLDIOPTR

  -------         MODULE        ?C?PSTOPTR
  C:0A40H         PUBLIC        ?C?PSTOPTR
  -------         ENDMOD        ?C?PSTOPTR

  -------         MODULE        ?C?ICASE
  C:0A99H         PUBLIC        ?C?ICASE
  -------         ENDMOD        ?C?ICASE

  -------         MODULE        ?C?ICALL
  C:0AC6H         PUBLIC        ?C?ICALL
  C:0ACAH         PUBLIC        ?C?ICALL2
  -------         ENDMOD        ?C?ICALL

  -------         MODULE        STRNCMP
  D:002CH         PUBLIC        ?_strncmp?BYTE
  C:639DH         PUBLIC        _strncmp
  -------         ENDMOD        STRNCMP
BL51 BANKED LINKER/LOCATER V6.22                                                      06/27/2018  11:39:01  PAGE 114



  -------         MODULE        STRNCPY
  D:002BH         PUBLIC        ?_strncpy?BYTE
  C:6A75H         PUBLIC        _strncpy
  -------         ENDMOD        STRNCPY

  -------         MODULE        ?C?LLDIDATA
  C:0ACCH         PUBLIC        ?C?LLDIDATA
  -------         ENDMOD        ?C?LLDIDATA

  -------         MODULE        ?C?LLDXDATA
  C:0AD8H         PUBLIC        ?C?LLDXDATA
  -------         ENDMOD        ?C?LLDXDATA

  -------         MODULE        ?C?LLDPDATA
  C:0AE4H         PUBLIC        ?C?LLDPDATA
  -------         ENDMOD        ?C?LLDPDATA

  -------         MODULE        ?C?LLDIDATA0
  C:0AF0H         PUBLIC        ?C?LLDIDATA0
  -------         ENDMOD        ?C?LLDIDATA0

  -------         MODULE        ?C?LLDXDATA0
  C:0AFDH         PUBLIC        ?C?LLDXDATA0
  -------         ENDMOD        ?C?LLDXDATA0

  -------         MODULE        ?C?LLDPDATA0
  C:0B09H         PUBLIC        ?C?LLDPDATA0
  -------         ENDMOD        ?C?LLDPDATA0

  -------         MODULE        ?C?LSTIDATA
  C:0B16H         PUBLIC        ?C?LSTIDATA
  -------         ENDMOD        ?C?LSTIDATA

  -------         MODULE        ?C?LSTPDATA
  C:0B22H         PUBLIC        ?C?LSTPDATA
  -------         ENDMOD        ?C?LSTPDATA

  -------         MODULE        ?C?LSTKIDATA
  C:0B2EH         PUBLIC        ?C?LSTKIDATA
  -------         ENDMOD        ?C?LSTKIDATA

  -------         MODULE        ?C?LSTKPDATA
  C:0B47H         PUBLIC        ?C?LSTKPDATA
  -------         ENDMOD        ?C?LSTKPDATA

  -------         MODULE        ?C?PLDIDATA
  C:0B60H         PUBLIC        ?C?PLDIDATA
  -------         ENDMOD        ?C?PLDIDATA

  -------         MODULE        ?C?PLDIIDATA
  C:0B69H         PUBLIC        ?C?PLDIIDATA
  -------         ENDMOD        ?C?PLDIIDATA

  -------         MODULE        ?C?PSTIDATA
  C:0B79H         PUBLIC        ?C?PSTIDATA
  -------         ENDMOD        ?C?PSTIDATA
BL51 BANKED LINKER/LOCATER V6.22                                                      06/27/2018  11:39:01  PAGE 115



  -------         MODULE        ?C?PLDXDATA
  C:0B82H         PUBLIC        ?C?PLDXDATA
  -------         ENDMOD        ?C?PLDXDATA

  -------         MODULE        ?C?PLDIXDATA
  C:0B8BH         PUBLIC        ?C?PLDIXDATA
  -------         ENDMOD        ?C?PLDIXDATA

  -------         MODULE        ?C?PSTXDATA
  C:0BA2H         PUBLIC        ?C?PSTXDATA
  -------         ENDMOD        ?C?PSTXDATA

  -------         MODULE        ?C?PLDPDATA
  C:0BABH         PUBLIC        ?C?PLDPDATA
  -------         ENDMOD        ?C?PLDPDATA

  -------         MODULE        ?C?PLDIPDATA
  C:0BB4H         PUBLIC        ?C?PLDIPDATA
  -------         ENDMOD        ?C?PLDIPDATA

  -------         MODULE        ?C?PSTPDATA
  C:0BC4H         PUBLIC        ?C?PSTPDATA
  -------         ENDMOD        ?C?PSTPDATA

  -------         MODULE        ?C?PLDCODE
  C:0BCDH         PUBLIC        ?C?PLDCODE
  -------         ENDMOD        ?C?PLDCODE

Program Size: data=114.4 xdata=3240 code=31835
LINK/LOCATE RUN COMPLETE.  0 WARNING(S),  0 ERROR(S)
